ccopy_reg
_reconstructor
p0
(cmyhmm_scaled
MyHmmScaled
p1
c__builtin__
object
p2
Ntp3
Rp4
(dp5
S'A'
p6
(dp7
Vq1
p8
(dp9
g8
F0.8378921327528668
sVq3
p10
F0.1612142130883673
sVq2
p11
F0.0008936541587667748
ssg10
(dp12
g8
F0.8004436276362159
sg10
F0.027104889384723704
sg11
F0.17245148297906013
ssg11
(dp13
g8
F0.14110602783633053
sg10
F0.0010729892841166197
sg11
F0.8578209828795528
sssS'symbols'
p14
(lp15
V11
p16
aV10
p17
aV13
p18
aV12
p19
aV15
p20
aV14
p21
aV1
p22
aV0
p23
aV3
p24
aV2
p25
aV5
p26
aV4
p27
aV7
p28
aV6
p29
aV9
p30
aV8
p31
asS'B'
p32
(dp33
g8
(dp34
g16
F0.01769400146627745
sg17
F0.10051700720763965
sg18
F0.12718191719029245
sg19
F0.0450922390795633
sg20
F0.03512450570253206
sg21
F0.07208923054677101
sg22
F0.06712850488484212
sg23
F0.10350297576001119
sg24
F0.13594691582083965
sg25
F0.004131011036992195
sg26
F0.010055563177411716
sg27
F0.08318709219567512
sg28
F0.14621581715120321
sg29
F0.01521309661264152
sg30
F0.020143003955471823
sg31
F0.016777118211835747
ssg10
(dp35
g16
F0.001326825853625759
sg17
F0.20608146947920514
sg18
F0.01248753452854804
sg19
F0.03923638061367947
sg20
F0.011377442666079934
sg21
F0.04845504206145575
sg22
F0.0011405927764367456
sg23
F0.12548547810382213
sg24
F0.05713249674905091
sg25
F0.06819028201886697
sg26
F0.004320096966830961
sg27
F0.01735210197639497
sg28
F0.03905799155685657
sg29
F0.08979631127127749
sg30
F0.03833994227937251
sg31
F0.24022001109849664
ssg11
(dp36
g16
F0.052287820204533104
sg17
F9.669868720150495e-16
sg18
F6.120083842290273e-09
sg19
F0.2145909557790511
sg20
F0.23160543274787346
sg21
F0.1593503546514681
sg22
F3.064371421353655e-30
sg23
F0.07031776044751467
sg24
F2.2136897328058422e-16
sg25
F0.03937026143482588
sg26
F1.4504345951776692e-19
sg27
F0.00047518477875044057
sg28
F0.06371824558674781
sg29
F0.0701127513788545
sg30
F0.09817122687029581
sg31
F6.092848869027378e-24
sssS'bwk'
p37
(lp38
(dp39
a(dp40
a(dp41
a(dp42
a(dp43
a(dp44
a(dp45
a(dp46
a(dp47
a(dp48
a(dp49
a(dp50
a(dp51
a(dp52
a(dp53
a(dp54
a(dp55
a(dp56
a(dp57
a(dp58
a(dp59
a(dp60
a(dp61
a(dp62
a(dp63
a(dp64
a(dp65
a(dp66
a(dp67
a(dp68
a(dp69
a(dp70
a(dp71
a(dp72
a(dp73
a(dp74
a(dp75
a(dp76
a(dp77
a(dp78
a(dp79
a(dp80
a(dp81
a(dp82
a(dp83
a(dp84
a(dp85
a(dp86
a(dp87
a(dp88
a(dp89
a(dp90
a(dp91
a(dp92
a(dp93
a(dp94
a(dp95
a(dp96
a(dp97
a(dp98
a(dp99
a(dp100
a(dp101
a(dp102
a(dp103
a(dp104
a(dp105
a(dp106
a(dp107
a(dp108
a(dp109
a(dp110
a(dp111
a(dp112
a(dp113
a(dp114
a(dp115
a(dp116
a(dp117
a(dp118
a(dp119
a(dp120
a(dp121
a(dp122
a(dp123
a(dp124
a(dp125
a(dp126
a(dp127
a(dp128
a(dp129
a(dp130
a(dp131
a(dp132
a(dp133
a(dp134
a(dp135
a(dp136
a(dp137
a(dp138
a(dp139
a(dp140
a(dp141
a(dp142
a(dp143
a(dp144
a(dp145
a(dp146
a(dp147
a(dp148
a(dp149
a(dp150
a(dp151
a(dp152
a(dp153
a(dp154
a(dp155
a(dp156
a(dp157
a(dp158
a(dp159
a(dp160
a(dp161
a(dp162
a(dp163
a(dp164
a(dp165
a(dp166
a(dp167
a(dp168
a(dp169
a(dp170
a(dp171
a(dp172
a(dp173
a(dp174
a(dp175
a(dp176
a(dp177
a(dp178
a(dp179
a(dp180
a(dp181
a(dp182
a(dp183
a(dp184
a(dp185
a(dp186
a(dp187
a(dp188
a(dp189
a(dp190
a(dp191
a(dp192
a(dp193
a(dp194
a(dp195
a(dp196
a(dp197
a(dp198
a(dp199
a(dp200
a(dp201
a(dp202
a(dp203
a(dp204
a(dp205
a(dp206
a(dp207
a(dp208
a(dp209
a(dp210
a(dp211
a(dp212
a(dp213
a(dp214
a(dp215
a(dp216
a(dp217
a(dp218
a(dp219
a(dp220
a(dp221
a(dp222
a(dp223
a(dp224
a(dp225
a(dp226
a(dp227
a(dp228
a(dp229
a(dp230
a(dp231
a(dp232
a(dp233
a(dp234
a(dp235
a(dp236
a(dp237
a(dp238
a(dp239
a(dp240
a(dp241
a(dp242
a(dp243
a(dp244
a(dp245
a(dp246
a(dp247
a(dp248
a(dp249
a(dp250
a(dp251
a(dp252
a(dp253
a(dp254
a(dp255
a(dp256
a(dp257
a(dp258
a(dp259
a(dp260
a(dp261
a(dp262
a(dp263
a(dp264
a(dp265
a(dp266
a(dp267
a(dp268
a(dp269
a(dp270
a(dp271
a(dp272
a(dp273
a(dp274
a(dp275
a(dp276
a(dp277
a(dp278
a(dp279
a(dp280
a(dp281
a(dp282
a(dp283
a(dp284
a(dp285
a(dp286
a(dp287
a(dp288
a(dp289
a(dp290
a(dp291
a(dp292
a(dp293
a(dp294
a(dp295
a(dp296
a(dp297
a(dp298
a(dp299
a(dp300
a(dp301
a(dp302
a(dp303
a(dp304
a(dp305
a(dp306
a(dp307
a(dp308
a(dp309
a(dp310
a(dp311
a(dp312
a(dp313
a(dp314
a(dp315
a(dp316
a(dp317
a(dp318
a(dp319
a(dp320
a(dp321
a(dp322
a(dp323
a(dp324
a(dp325
a(dp326
a(dp327
a(dp328
a(dp329
a(dp330
a(dp331
a(dp332
a(dp333
a(dp334
a(dp335
a(dp336
a(dp337
a(dp338
a(dp339
a(dp340
a(dp341
a(dp342
a(dp343
a(dp344
a(dp345
a(dp346
a(dp347
a(dp348
a(dp349
a(dp350
a(dp351
a(dp352
a(dp353
a(dp354
a(dp355
a(dp356
a(dp357
a(dp358
a(dp359
a(dp360
a(dp361
a(dp362
a(dp363
a(dp364
a(dp365
a(dp366
a(dp367
a(dp368
a(dp369
a(dp370
a(dp371
a(dp372
a(dp373
a(dp374
a(dp375
a(dp376
a(dp377
a(dp378
a(dp379
a(dp380
a(dp381
a(dp382
a(dp383
a(dp384
a(dp385
a(dp386
a(dp387
a(dp388
a(dp389
a(dp390
a(dp391
a(dp392
a(dp393
a(dp394
a(dp395
a(dp396
a(dp397
a(dp398
a(dp399
a(dp400
a(dp401
a(dp402
a(dp403
a(dp404
a(dp405
a(dp406
a(dp407
a(dp408
a(dp409
a(dp410
a(dp411
a(dp412
a(dp413
a(dp414
a(dp415
a(dp416
a(dp417
a(dp418
a(dp419
a(dp420
a(dp421
a(dp422
a(dp423
a(dp424
a(dp425
a(dp426
a(dp427
a(dp428
a(dp429
a(dp430
a(dp431
a(dp432
a(dp433
a(dp434
a(dp435
a(dp436
a(dp437
a(dp438
a(dp439
a(dp440
a(dp441
a(dp442
a(dp443
a(dp444
a(dp445
a(dp446
a(dp447
a(dp448
a(dp449
a(dp450
a(dp451
a(dp452
a(dp453
a(dp454
a(dp455
a(dp456
a(dp457
a(dp458
a(dp459
a(dp460
a(dp461
a(dp462
a(dp463
a(dp464
a(dp465
a(dp466
a(dp467
a(dp468
a(dp469
a(dp470
a(dp471
a(dp472
a(dp473
a(dp474
a(dp475
a(dp476
a(dp477
a(dp478
a(dp479
a(dp480
a(dp481
a(dp482
a(dp483
a(dp484
a(dp485
a(dp486
a(dp487
a(dp488
a(dp489
a(dp490
a(dp491
a(dp492
a(dp493
a(dp494
a(dp495
a(dp496
a(dp497
a(dp498
a(dp499
a(dp500
a(dp501
a(dp502
a(dp503
a(dp504
a(dp505
a(dp506
a(dp507
a(dp508
a(dp509
a(dp510
a(dp511
a(dp512
a(dp513
a(dp514
a(dp515
a(dp516
a(dp517
a(dp518
a(dp519
a(dp520
a(dp521
a(dp522
a(dp523
a(dp524
a(dp525
a(dp526
a(dp527
a(dp528
a(dp529
a(dp530
a(dp531
a(dp532
a(dp533
a(dp534
a(dp535
a(dp536
a(dp537
a(dp538
a(dp539
a(dp540
a(dp541
a(dp542
a(dp543
a(dp544
a(dp545
a(dp546
a(dp547
a(dp548
a(dp549
a(dp550
a(dp551
a(dp552
a(dp553
a(dp554
a(dp555
a(dp556
g8
I1
sg10
I1
sg11
I1
sasS'fwd'
p557
(lp558
(dp559
g8
F4.1533449812155116e-63
sg10
F1.1920433150245726e-59
sg11
F0.23588381048646007
sa(dp560
a(dp561
a(dp562
a(dp563
a(dp564
a(dp565
a(dp566
a(dp567
a(dp568
a(dp569
a(dp570
a(dp571
a(dp572
a(dp573
a(dp574
a(dp575
a(dp576
a(dp577
a(dp578
a(dp579
a(dp580
a(dp581
a(dp582
a(dp583
a(dp584
a(dp585
a(dp586
a(dp587
a(dp588
a(dp589
a(dp590
a(dp591
a(dp592
a(dp593
a(dp594
a(dp595
a(dp596
a(dp597
a(dp598
a(dp599
a(dp600
a(dp601
a(dp602
a(dp603
a(dp604
a(dp605
a(dp606
a(dp607
a(dp608
a(dp609
a(dp610
a(dp611
a(dp612
a(dp613
a(dp614
a(dp615
a(dp616
a(dp617
a(dp618
a(dp619
a(dp620
a(dp621
a(dp622
a(dp623
a(dp624
a(dp625
a(dp626
a(dp627
a(dp628
a(dp629
a(dp630
a(dp631
a(dp632
a(dp633
a(dp634
a(dp635
a(dp636
a(dp637
a(dp638
a(dp639
a(dp640
a(dp641
a(dp642
a(dp643
a(dp644
a(dp645
a(dp646
a(dp647
a(dp648
a(dp649
a(dp650
a(dp651
a(dp652
a(dp653
a(dp654
a(dp655
a(dp656
a(dp657
a(dp658
a(dp659
a(dp660
a(dp661
a(dp662
a(dp663
a(dp664
a(dp665
a(dp666
a(dp667
a(dp668
a(dp669
a(dp670
a(dp671
a(dp672
a(dp673
a(dp674
a(dp675
a(dp676
a(dp677
a(dp678
a(dp679
a(dp680
a(dp681
a(dp682
a(dp683
a(dp684
a(dp685
a(dp686
a(dp687
a(dp688
a(dp689
a(dp690
a(dp691
a(dp692
a(dp693
a(dp694
a(dp695
a(dp696
a(dp697
a(dp698
a(dp699
a(dp700
a(dp701
a(dp702
a(dp703
a(dp704
a(dp705
a(dp706
a(dp707
a(dp708
a(dp709
a(dp710
a(dp711
a(dp712
a(dp713
a(dp714
a(dp715
a(dp716
a(dp717
a(dp718
a(dp719
a(dp720
a(dp721
a(dp722
a(dp723
a(dp724
a(dp725
a(dp726
a(dp727
a(dp728
a(dp729
a(dp730
a(dp731
a(dp732
a(dp733
a(dp734
a(dp735
a(dp736
a(dp737
a(dp738
a(dp739
a(dp740
a(dp741
a(dp742
a(dp743
a(dp744
a(dp745
a(dp746
a(dp747
a(dp748
a(dp749
a(dp750
a(dp751
a(dp752
a(dp753
a(dp754
a(dp755
a(dp756
a(dp757
a(dp758
a(dp759
a(dp760
a(dp761
a(dp762
a(dp763
a(dp764
a(dp765
a(dp766
a(dp767
a(dp768
a(dp769
a(dp770
a(dp771
a(dp772
a(dp773
a(dp774
a(dp775
a(dp776
a(dp777
a(dp778
a(dp779
a(dp780
a(dp781
a(dp782
a(dp783
a(dp784
a(dp785
a(dp786
a(dp787
a(dp788
a(dp789
a(dp790
a(dp791
a(dp792
a(dp793
a(dp794
a(dp795
a(dp796
a(dp797
a(dp798
a(dp799
a(dp800
a(dp801
a(dp802
a(dp803
a(dp804
a(dp805
a(dp806
a(dp807
a(dp808
a(dp809
a(dp810
a(dp811
a(dp812
a(dp813
a(dp814
a(dp815
a(dp816
a(dp817
a(dp818
a(dp819
a(dp820
a(dp821
a(dp822
a(dp823
a(dp824
a(dp825
a(dp826
a(dp827
a(dp828
a(dp829
a(dp830
a(dp831
a(dp832
a(dp833
a(dp834
a(dp835
a(dp836
a(dp837
a(dp838
a(dp839
a(dp840
a(dp841
a(dp842
a(dp843
a(dp844
a(dp845
a(dp846
a(dp847
a(dp848
a(dp849
a(dp850
a(dp851
a(dp852
a(dp853
a(dp854
a(dp855
a(dp856
a(dp857
a(dp858
a(dp859
a(dp860
a(dp861
a(dp862
a(dp863
a(dp864
a(dp865
a(dp866
a(dp867
a(dp868
a(dp869
a(dp870
a(dp871
a(dp872
a(dp873
a(dp874
a(dp875
a(dp876
a(dp877
a(dp878
a(dp879
a(dp880
a(dp881
a(dp882
a(dp883
a(dp884
a(dp885
a(dp886
a(dp887
a(dp888
a(dp889
a(dp890
a(dp891
a(dp892
a(dp893
a(dp894
a(dp895
a(dp896
a(dp897
a(dp898
a(dp899
a(dp900
a(dp901
a(dp902
a(dp903
a(dp904
a(dp905
a(dp906
a(dp907
a(dp908
a(dp909
a(dp910
a(dp911
a(dp912
a(dp913
a(dp914
a(dp915
a(dp916
a(dp917
a(dp918
a(dp919
a(dp920
a(dp921
a(dp922
a(dp923
a(dp924
a(dp925
a(dp926
a(dp927
a(dp928
a(dp929
a(dp930
a(dp931
a(dp932
a(dp933
a(dp934
a(dp935
a(dp936
a(dp937
a(dp938
a(dp939
a(dp940
a(dp941
a(dp942
a(dp943
a(dp944
a(dp945
a(dp946
a(dp947
a(dp948
a(dp949
a(dp950
a(dp951
a(dp952
a(dp953
a(dp954
a(dp955
a(dp956
a(dp957
a(dp958
a(dp959
a(dp960
a(dp961
a(dp962
a(dp963
a(dp964
a(dp965
a(dp966
a(dp967
a(dp968
a(dp969
a(dp970
a(dp971
a(dp972
a(dp973
a(dp974
a(dp975
a(dp976
a(dp977
a(dp978
a(dp979
a(dp980
a(dp981
a(dp982
a(dp983
a(dp984
a(dp985
a(dp986
a(dp987
a(dp988
a(dp989
a(dp990
a(dp991
a(dp992
a(dp993
a(dp994
a(dp995
a(dp996
a(dp997
a(dp998
a(dp999
a(dp1000
a(dp1001
a(dp1002
a(dp1003
a(dp1004
a(dp1005
a(dp1006
a(dp1007
a(dp1008
a(dp1009
a(dp1010
a(dp1011
a(dp1012
a(dp1013
a(dp1014
a(dp1015
a(dp1016
a(dp1017
a(dp1018
a(dp1019
a(dp1020
a(dp1021
a(dp1022
a(dp1023
a(dp1024
a(dp1025
a(dp1026
a(dp1027
a(dp1028
a(dp1029
a(dp1030
a(dp1031
a(dp1032
a(dp1033
a(dp1034
a(dp1035
a(dp1036
a(dp1037
a(dp1038
a(dp1039
a(dp1040
a(dp1041
a(dp1042
a(dp1043
a(dp1044
a(dp1045
a(dp1046
a(dp1047
a(dp1048
a(dp1049
a(dp1050
a(dp1051
a(dp1052
a(dp1053
a(dp1054
a(dp1055
a(dp1056
a(dp1057
a(dp1058
a(dp1059
a(dp1060
a(dp1061
a(dp1062
a(dp1063
a(dp1064
a(dp1065
a(dp1066
a(dp1067
a(dp1068
a(dp1069
a(dp1070
a(dp1071
a(dp1072
a(dp1073
a(dp1074
a(dp1075
a(dp1076
asS'logpi'
p1077
(dp1078
g8
F-1.0986122886681098
sg10
F-1.0986122886681098
sg11
F-1.0986122886681098
ssS'M'
p1079
I16
sS'fwd_scaled'
p1080
(lp1081
(dp1082
g8
F1.7607588128452406e-62
sg10
F5.053518987022625e-59
sg11
F0.9999999999999999
sa(dp1083
g8
F0.023580158785439866
sg10
F6.687352797370948e-05
sg11
F0.9763529676865863
sa(dp1084
g8
F0.08025493645580387
sg10
F0.0015013175165410591
sg11
F0.918243746027655
sa(dp1085
g8
F0.9920260973512528
sg10
F0.007973697345655192
sg11
F2.053030919859701e-07
sa(dp1086
g8
F0.8394112513948577
sg10
F0.14963870187404812
sg11
F0.010950046731094244
sa(dp1087
g8
F0.9305585794381136
sg10
F0.06944142056188637
sg11
F1.7199773385701912e-17
sa(dp1088
g8
F0.7174527656288379
sg10
F0.23215525950145802
sg11
F0.05039197486970407
sa(dp1089
g8
F0.5767824911362386
sg10
F0.033224367791203614
sg11
F0.38999314107255784
sa(dp1090
g8
F0.9815379460569074
sg10
F0.018462023603312956
sg11
F3.033977961372921e-08
sa(dp1091
g8
F0.9791298745280501
sg10
F0.020870125234324955
sg11
F2.3762486347108037e-10
sa(dp1092
g8
F0.2736367155519347
sg10
F0.7263632844480654
sg11
F6.908953384038075e-25
sa(dp1093
g8
F0.29111899955645293
sg10
F0.33943826135387056
sg11
F0.36944273908967673
sa(dp1094
g8
F0.23943672289167003
sg10
F0.022384555148577095
sg11
F0.7381787219597529
sa(dp1095
g8
F0.9477605801499299
sg10
F0.052239419850069156
sg11
F8.434772789873326e-16
sa(dp1096
g8
F0.8818997335905628
sg10
F0.09740084711443588
sg11
F0.02069941929500143
sa(dp1097
g8
F0.25252659051471726
sg10
F0.6533456729891559
sg11
F0.09412773649612699
sa(dp1098
g8
F0.3756032728290223
sg10
F0.011142175718974292
sg11
F0.6132545514520036
sa(dp1099
g8
F0.13190743821464765
sg10
F0.035366908161145606
sg11
F0.8327256536242068
sa(dp1100
g8
F0.06656992296001499
sg10
F0.03648122077695485
sg11
F0.8969488562630303
sa(dp1101
g8
F0.03890651099250386
sg10
F0.0008875764651331232
sg11
F0.9602059125423631
sa(dp1102
g8
F0.04068722920057052
sg10
F0.0016722035200885399
sg11
F0.9576405672793409
sa(dp1103
g8
F0.04120159313104386
sg10
F0.0017458748855263837
sg11
F0.9570525319834298
sa(dp1104
g8
F0.029791240370773492
sg10
F0.000511540692963345
sg11
F0.9696972189362632
sa(dp1105
g8
F0.3075475177220465
sg10
F0.0030900317213305856
sg11
F0.6893624505566229
sa(dp1106
g8
F0.08237383408842615
sg10
F0.00437777643639205
sg11
F0.9132483894751818
sa(dp1107
g8
F0.049471665848750054
sg10
F0.021515710864186736
sg11
F0.9290126232870632
sa(dp1108
g8
F0.046176522013359526
sg10
F0.014204160640938757
sg11
F0.9396193173457017
sa(dp1109
g8
F0.044775126295995823
sg10
F0.002053193462307866
sg11
F0.9531716802416962
sa(dp1110
g8
F0.06390702704706101
sg10
F0.0003091858721981704
sg11
F0.935783787080741
sa(dp1111
g8
F0.033067207063976554
sg10
F0.0007652256973316316
sg11
F0.9661675672386919
sa(dp1112
g8
F0.08439815789997888
sg10
F0.001991000454634074
sg11
F0.913610841645387
sa(dp1113
g8
F0.036582145654281625
sg10
F0.0010106264618858184
sg11
F0.9624072278838325
sa(dp1114
g8
F0.04023724998641664
sg10
F0.0015849251455954333
sg11
F0.958177824867988
sa(dp1115
g8
F0.08767224162650843
sg10
F0.0023673835774307866
sg11
F0.9099603747960608
sa(dp1116
g8
F0.2861851500585376
sg10
F0.02610569629915164
sg11
F0.6877091536423108
sa(dp1117
g8
F0.7979829126077078
sg10
F0.20201708739228733
sg11
F4.914189785279889e-15
sa(dp1118
g8
F0.879381940123997
sg10
F0.014169685089937491
sg11
F0.10644837478606539
sa(dp1119
g8
F0.7681280399934669
sg10
F0.17312073952600984
sg11
F0.058751220480523336
sa(dp1120
g8
F0.9488164467465171
sg10
F0.05118355325348297
sg11
F6.941974736283052e-19
sa(dp1121
g8
F0.8821531500118833
sg10
F0.0975136039298392
sg11
F0.02033324605827744
sa(dp1122
g8
F0.7458499687334178
sg10
F0.049366081601263
sg11
F0.2047839496653193
sa(dp1123
g8
F0.7263602051943351
sg10
F0.15435566070526846
sg11
F0.11928413410039632
sa(dp1124
g8
F0.5111152183639374
sg10
F0.07731253917591754
sg11
F0.41157224246014507
sa(dp1125
g8
F0.752583119128632
sg10
F0.03203322623252635
sg11
F0.2153836546388417
sa(dp1126
g8
F0.29478818031584975
sg10
F0.31614055778901157
sg11
F0.38907126189513874
sa(dp1127
g8
F0.17760536435056523
sg10
F0.006820288836067442
sg11
F0.8155743468133673
sa(dp1128
g8
F0.8261159285853502
sg10
F0.17388407141464177
sg11
F8.00058350500644e-15
sa(dp1129
g8
F0.8535346714663478
sg10
F0.08477990464674236
sg11
F0.06168542388690983
sa(dp1130
g8
F0.22991942897844492
sg10
F0.5953366603967088
sg11
F0.17474391062484615
sa(dp1131
g8
F0.2976365279541776
sg10
F0.008686454186757425
sg11
F0.693677017859065
sa(dp1132
g8
F0.5668234385931856
sg10
F0.021602216855806537
sg11
F0.4115743445510078
sa(dp1133
g8
F0.19605930877820096
sg10
F0.1982919543211328
sg11
F0.6056487369006662
sa(dp1134
g8
F0.62352565909089
sg10
F0.01588728615146191
sg11
F0.36058705475764796
sa(dp1135
g8
F0.6496447598811435
sg10
F0.13602820676985455
sg11
F0.21432703334900188
sa(dp1136
g8
F0.7686016541957057
sg10
F0.23139834580429341
sg11
F8.537985866374586e-16
sa(dp1137
g8
F0.6664578952877696
sg10
F0.18626570595712502
sg11
F0.1472763987551054
sa(dp1138
g8
F0.46285571540916975
sg10
F0.06682948229590842
sg11
F0.47031480229492184
sa(dp1139
g8
F0.5920694712427454
sg10
F0.10878226069343663
sg11
F0.29914826806381806
sa(dp1140
g8
F0.6838778012719507
sg10
F0.13070377336787453
sg11
F0.18541842536017458
sa(dp1141
g8
F0.7383955193209994
sg10
F0.14469579330955054
sg11
F0.11690868736944991
sa(dp1142
g8
F0.7691445949038568
sg10
F0.1524614289572286
sg11
F0.07839397613891445
sa(dp1143
g8
F0.912417341480223
sg10
F0.04124800786342905
sg11
F0.046334650656348036
sa(dp1144
g8
F0.6896514478466739
sg10
F0.11858955844098941
sg11
F0.19175899371233665
sa(dp1145
g8
F0.7633266376454952
sg10
F0.23667336235450406
sg11
F7.394708114272136e-16
sa(dp1146
g8
F0.9410440046393801
sg10
F0.0402923828930824
sg11
F0.0186636124675373
sa(dp1147
g8
F0.8539368129383521
sg10
F0.09489610603514682
sg11
F0.05116708102650105
sa(dp1148
g8
F0.7945213559688857
sg10
F0.1687112542926638
sg11
F0.036767389738450604
sa(dp1149
g8
F0.6663595494197807
sg10
F0.10234169156439574
sg11
F0.23129875901582353
sa(dp1150
g8
F0.8459529373730494
sg10
F0.03809598127284919
sg11
F0.11595108135410136
sa(dp1151
g8
F0.49724437843104724
sg10
F0.16110991141128403
sg11
F0.3416457101576687
sa(dp1152
g8
F0.25797452165310353
sg10
F0.06579814439538864
sg11
F0.6762273339515077
sa(dp1153
g8
F0.10909454749879788
sg10
F0.023659336913378744
sg11
F0.8672461155878233
sa(dp1154
g8
F0.04415553167842056
sg10
F0.0013787374688225323
sg11
F0.9544657308527569
sa(dp1155
g8
F0.041857424120119786
sg10
F0.0018762838880579836
sg11
F0.9562662919918223
sa(dp1156
g8
F0.02207771448580325
sg10
F0.014978977310676414
sg11
F0.9629433082035204
sa(dp1157
g8
F0.038748934072034995
sg10
F0.002109703119813844
sg11
F0.9591413628081511
sa(dp1158
g8
F0.0217752726703231
sg10
F0.014011101684309482
sg11
F0.9642136256453674
sa(dp1159
g8
F0.06029045241402093
sg10
F0.00018214537137040915
sg11
F0.9395274022146087
sa(dp1160
g8
F0.06819082344890905
sg10
F0.0004041764215690664
sg11
F0.9314050001295219
sa(dp1161
g8
F0.9790807323285938
sg10
F0.02091926767140612
sg11
F3.097649984228793e-17
sa(dp1162
g8
F0.7364338513546129
sg10
F0.26356614864538697
sg11
F1.4124136960222335e-17
sa(dp1163
g8
F0.7218427645144723
sg10
F0.1023826085105694
sg11
F0.17577462697495844
sa(dp1164
g8
F0.4401784875026133
sg10
F0.06889359579309838
sg11
F0.49092791670428837
sa(dp1165
g8
F0.3399356975250938
sg10
F0.030373829795008613
sg11
F0.6296904726798976
sa(dp1166
g8
F0.6140545628148443
sg10
F0.023925653544080886
sg11
F0.3620197836410749
sa(dp1167
g8
F0.2149485353511211
sg10
F0.013801438840611911
sg11
F0.771250025808267
sa(dp1168
g8
F0.08568629196508842
sg10
F0.009627987672897994
sg11
F0.9046857203620136
sa(dp1169
g8
F0.037952635396568714
sg10
F0.0010466742949846498
sg11
F0.9610006903084465
sa(dp1170
g8
F0.029206341369570253
sg10
F0.00047404975665166243
sg11
F0.9703196088737781
sa(dp1171
g8
F0.9672073677814956
sg10
F0.008054695466437058
sg11
F0.024737936752067247
sa(dp1172
g8
F0.8514878182411733
sg10
F0.09705651116465687
sg11
F0.051455670594169944
sa(dp1173
g8
F0.8009723558892577
sg10
F0.0140049257623308
sg11
F0.1850227183484115
sa(dp1174
g8
F0.958497522840139
sg10
F0.040435635142417777
sg11
F0.0010668420174431688
sa(dp1175
g8
F0.8121899917848605
sg10
F0.18279430350479892
sg11
F0.005015704710340622
sa(dp1176
g8
F0.8435593527345054
sg10
F0.08296182883720302
sg11
F0.07347881842829161
sa(dp1177
g8
F0.9604906607421417
sg10
F0.03904918815188912
sg11
F0.000460151105969033
sa(dp1178
g8
F0.9478734608537179
sg10
F0.04842811219040722
sg11
F0.003698426955874934
sa(dp1179
g8
F0.7408841386446183
sg10
F0.25911586135538167
sg11
F3.888919839835355e-17
sa(dp1180
g8
F0.7174549207002509
sg10
F0.04106692746789142
sg11
F0.2414781518318576
sa(dp1181
g8
F0.561160131704038
sg10
F0.058923543649858044
sg11
F0.3799163246461038
sa(dp1182
g8
F0.42757627214536864
sg10
F0.04155283214319776
sg11
F0.5308708957114336
sa(dp1183
g8
F0.5562257469398052
sg10
F0.10217259656042617
sg11
F0.34160165649976876
sa(dp1184
g8
F0.7721280995586652
sg10
F0.22787190044133337
sg11
F1.4797416894903763e-15
sa(dp1185
g8
F0.8209906875216975
sg10
F0.1563860367930622
sg11
F0.02262327568524053
sa(dp1186
g8
F0.7595050898195747
sg10
F0.2404949101804252
sg11
F1.5462466862407757e-16
sa(dp1187
g8
F0.31410136432261254
sg10
F0.6858986356773875
sg11
F7.180794180814378e-24
sa(dp1188
g8
F0.7498233478838304
sg10
F0.03863388732262098
sg11
F0.21154276479354853
sa(dp1189
g8
F0.7228495086022179
sg10
F0.15502612954887873
sg11
F0.12212436184890342
sa(dp1190
g8
F0.6831171387071381
sg10
F0.06623033947197476
sg11
F0.25065252182088715
sa(dp1191
g8
F0.2992650843877307
sg10
F0.019058758023873006
sg11
F0.6816761575883963
sa(dp1192
g8
F0.16672624894367105
sg10
F0.0022856945505325566
sg11
F0.8309880565057964
sa(dp1193
g8
F0.44981927884433537
sg10
F0.013388373172505045
sg11
F0.5367923479831596
sa(dp1194
g8
F0.9343784602055475
sg10
F0.06562153979445226
sg11
F4.1954564404271155e-16
sa(dp1195
g8
F0.8137188502586772
sg10
F0.1794104403145378
sg11
F0.006870709426784924
sa(dp1196
g8
F0.7433180221122027
sg10
F0.045856036495882144
sg11
F0.21082594139191518
sa(dp1197
g8
F0.9805805331767966
sg10
F0.01941945305589807
sg11
F1.3767305315875278e-08
sa(dp1198
g8
F0.9581821964391649
sg10
F0.041794838022225736
sg11
F2.296553860945496e-05
sa(dp1199
g8
F0.4626285831711334
sg10
F0.5171982288661041
sg11
F0.02017318796276237
sa(dp1200
g8
F0.8263383604226499
sg10
F0.11049998268911722
sg11
F0.06316165688823287
sa(dp1201
g8
F0.753868275520004
sg10
F0.24613172447999568
sg11
F2.552722041759692e-16
sa(dp1202
g8
F0.8218222456042906
sg10
F0.1537531218703748
sg11
F0.024424632525334587
sa(dp1203
g8
F0.8404883201539116
sg10
F0.014058164895613186
sg11
F0.1454535149504752
sa(dp1204
g8
F0.8887855628645354
sg10
F0.04503896153883459
sg11
F0.06617547559662998
sa(dp1205
g8
F0.9213974185109723
sg10
F0.04621039859407681
sg11
F0.03239218289495079
sa(dp1206
g8
F0.8000068350133986
sg10
F0.1780722156838926
sg11
F0.02192094930270877
sa(dp1207
g8
F0.6989334991275481
sg10
F0.10692229839484114
sg11
F0.1941442024776108
sa(dp1208
g8
F0.931767000695991
sg10
F0.06823299930400871
sg11
F1.0998550241069864e-16
sa(dp1209
g8
F0.8138342515511389
sg10
F0.17904505178500588
sg11
F0.007120696663855354
sa(dp1210
g8
F0.7372896845144785
sg10
F0.11324348449802057
sg11
F0.14946683098750102
sa(dp1211
g8
F0.883279269838835
sg10
F0.04053880274244448
sg11
F0.07618192741872046
sa(dp1212
g8
F0.5931154678296788
sg10
F0.04073747330613842
sg11
F0.36614705886418275
sa(dp1213
g8
F0.6476188333888022
sg10
F0.13104124723845573
sg11
F0.22133991937274203
sa(dp1214
g8
F0.9341855848026311
sg10
F0.06581441519736878
sg11
F1.3016692374434262e-16
sa(dp1215
g8
F0.7434971600209002
sg10
F0.25650283997909995
sg11
F3.7558762788507216e-17
sa(dp1216
g8
F0.9657007957279475
sg10
F0.0340634875865248
sg11
F0.00023571668552773862
sa(dp1217
g8
F0.958640420050608
sg10
F0.04132253256977729
sg11
F3.704737961485561e-05
sa(dp1218
g8
F0.947957063283708
sg10
F0.04834658007215016
sg11
F0.0036963566441418245
sa(dp1219
g8
F0.9245361784266586
sg10
F0.07546382157334151
sg11
F5.88818798566909e-18
sa(dp1220
g8
F0.926043682643766
sg10
F0.07395631735623398
sg11
F6.442156418020756e-18
sa(dp1221
g8
F0.9966512823310174
sg10
F0.003348717668982695
sg11
F8.916639209991203e-30
sa(dp1222
g8
F0.9493193028642112
sg10
F0.049914953152915546
sg11
F0.0007657439828734133
sa(dp1223
g8
F0.8811732425322645
sg10
F0.09749214385594528
sg11
F0.021334613611790107
sa(dp1224
g8
F0.9967345187539812
sg10
F0.003265481246018751
sg11
F2.4769191863643153e-29
sa(dp1225
g8
F0.9493222577342854
sg10
F0.049918389094935345
sg11
F0.0007593531707794717
sa(dp1226
g8
F0.9965844416516608
sg10
F0.0034155583483391283
sg11
F6.7101507077506e-30
sa(dp1227
g8
F0.8109855040927683
sg10
F0.18806487836251343
sg11
F0.0009496175447183268
sa(dp1228
g8
F0.7636083535798162
sg10
F0.2363916464201837
sg11
F1.0693629779724367e-16
sa(dp1229
g8
F0.7718278972173688
sg10
F0.22817210278263098
sg11
F1.3155440378428866e-16
sa(dp1230
g8
F0.9413452491580483
sg10
F0.04064267196635987
sg11
F0.018012078875591826
sa(dp1231
g8
F0.25213590460207874
sg10
F0.6851579955905299
sg11
F0.06270609980739132
sa(dp1232
g8
F0.9912967216341149
sg10
F0.00870326767656046
sg11
F1.0689324611192114e-08
sa(dp1233
g8
F0.978970430397814
sg10
F0.021029569457070758
sg11
F1.4511548748821657e-10
sa(dp1234
g8
F0.7341256084594854
sg10
F0.24715891221212177
sg11
F0.01871547932839295
sa(dp1235
g8
F0.9971620011411143
sg10
F0.002837998858885646
sg11
F4.018016274982914e-29
sa(dp1236
g8
F0.9493374332719545
sg10
F0.049936035308218114
sg11
F0.0007265314198273693
sa(dp1237
g8
F0.7410089306414117
sg10
F0.2589910693585883
sg11
F3.126327830912293e-17
sa(dp1238
g8
F0.7236724274366467
sg10
F0.10311803045932538
sg11
F0.17320954210402792
sa(dp1239
g8
F0.9310122231219343
sg10
F0.06898777687806554
sg11
F9.679787469251842e-17
sa(dp1240
g8
F0.9256707120582748
sg10
F0.0743292879417252
sg11
F5.930248650606188e-18
sa(dp1241
g8
F0.814103854742741
sg10
F0.1781914225782999
sg11
F0.007704722678959069
sa(dp1242
g8
F0.45534003676314866
sg10
F0.4509708844991992
sg11
F0.09368907873765218
sa(dp1243
g8
F0.8950275382343998
sg10
F0.027935705749135786
sg11
F0.07703675601646441
sa(dp1244
g8
F0.7672534387832224
sg10
F0.0851500554814907
sg11
F0.14759650573528707
sa(dp1245
g8
F0.9459184222447156
sg10
F0.05408157775528449
sg11
F1.3396042768208847e-18
sa(dp1246
g8
F0.9248139829537816
sg10
F0.07518601704621844
sg11
F4.7543750020645574e-18
sa(dp1247
g8
F0.8141417660073863
sg10
F0.17807138630361022
sg11
F0.007786847689003464
sa(dp1248
g8
F0.9632390724028735
sg10
F0.03655741826880896
sg11
F0.0002035093283175572
sa(dp1249
g8
F0.9238125913856459
sg10
F0.07618740861435414
sg11
F3.463024825788565e-18
sa(dp1250
g8
F0.8761861201171827
sg10
F0.0948585933159277
sg11
F0.028955286566889817
sa(dp1251
g8
F0.9346684805401376
sg10
F0.04525920903349784
sg11
F0.020072310426364575
sa(dp1252
g8
F0.6759054850525221
sg10
F0.2222455140074106
sg11
F0.10184900094006731
sa(dp1253
g8
F0.9654738859254055
sg10
F0.033762510737083064
sg11
F0.000763603337511564
sa(dp1254
g8
F0.8234275246256391
sg10
F0.14376547319635488
sg11
F0.03280700217800608
sa(dp1255
g8
F0.930635994456503
sg10
F0.06936400554349703
sg11
F2.6666021670374463e-17
sa(dp1256
g8
F0.7440623140984567
sg10
F0.25593768590154337
sg11
F3.943382941359735e-17
sa(dp1257
g8
F0.7752345205878557
sg10
F0.22476547941214428
sg11
F1.4285688931862234e-16
sa(dp1258
g8
F0.9347724146356324
sg10
F0.06522758536436754
sg11
F1.8422473043879797e-17
sa(dp1259
g8
F0.9254543658409201
sg10
F0.07454563415907994
sg11
F5.6333101964146346e-18
sa(dp1260
g8
F0.9259907739440429
sg10
F0.07400922605595704
sg11
F6.369538427740431e-18
sa(dp1261
g8
F0.8551720034492747
sg10
F0.05803336186784378
sg11
F0.08679463468288137
sa(dp1262
g8
F0.9801601839304883
sg10
F0.0198398105952056
sg11
F5.474306056764125e-09
sa(dp1263
g8
F0.4625903916643015
sg10
F0.5264211299620465
sg11
F0.010988478373651847
sa(dp1264
g8
F0.926430047705119
sg10
F0.02795326363638583
sg11
F0.04561668865849493
sa(dp1265
g8
F0.9239245940018057
sg10
F0.07607540599819428
sg11
F2.288704749862737e-17
sa(dp1266
g8
F0.28274205700634325
sg10
F0.7172579429936566
sg11
F2.1512501365424777e-24
sa(dp1267
g8
F0.9654503609697518
sg10
F0.03454963903024814
sg11
F6.052841819792185e-17
sa(dp1268
g8
F0.923695077749718
sg10
F0.07630492225028206
sg11
F3.2186606931026118e-18
sa(dp1269
g8
F0.9599646549519183
sg10
F0.039961941960535124
sg11
F7.340308754648707e-05
sa(dp1270
g8
F0.9588245440770965
sg10
F0.04113396663500714
sg11
F4.148928789634086e-05
sa(dp1271
g8
F0.9240723585223469
sg10
F0.07592764147765312
sg11
F3.753425731335192e-18
sa(dp1272
g8
F0.9260704128676385
sg10
F0.07392958713236167
sg11
F6.47884405441154e-18
sa(dp1273
g8
F0.7447906936441507
sg10
F0.25520930635584915
sg11
F4.1850445042444296e-17
sa(dp1274
g8
F0.9830463683332298
sg10
F0.016953629156823597
sg11
F2.5099465340419437e-09
sa(dp1275
g8
F0.9226906371397527
sg10
F0.0773093628602472
sg11
F1.8400517925959898e-18
sa(dp1276
g8
F0.9599962490151179
sg10
F0.03992945389102142
sg11
F7.429709386066166e-05
sa(dp1277
g8
F0.9240038431658268
sg10
F0.07599615683417307
sg11
F3.672781261299746e-18
sa(dp1278
g8
F0.9800730804147398
sg10
F0.019926918800395103
sg11
F7.848650283537987e-10
sa(dp1279
g8
F0.8117081181850273
sg10
F0.1857769055124909
sg11
F0.0025149763024818234
sa(dp1280
g8
F0.9819028923031895
sg10
F0.01809710572462718
sg11
F1.972183506471123e-09
sa(dp1281
g8
F0.9791239093855739
sg10
F0.02087609038026353
sg11
F2.341625255689694e-10
sa(dp1282
g8
F0.9486971293388184
sg10
F0.04919148585533641
sg11
F0.002111384805845017
sa(dp1283
g8
F0.9591200485535185
sg10
F0.04082042834458339
sg11
F5.9523101898216054e-05
sa(dp1284
g8
F0.9240546500491761
sg10
F0.07594534995082378
sg11
F3.7364840438228675e-18
sa(dp1285
g8
F0.2827198531265964
sg10
F0.7172801468734036
sg11
F2.1476889803595912e-24
sa(dp1286
g8
F0.9984986459761264
sg10
F0.001501354023873674
sg11
F8.202011056272591e-29
sa(dp1287
g8
F0.9493848842234126
sg10
F0.049991211581253275
sg11
F0.0006239041953341874
sa(dp1288
g8
F0.9796485617603696
sg10
F0.020351437670153915
sg11
F5.694765175589802e-10
sa(dp1289
g8
F0.922884333420376
sg10
F0.07711566657962392
sg11
F2.105902075753954e-18
sa(dp1290
g8
F0.8142271761647019
sg10
F0.1778009569945183
sg11
F0.007971866840779725
sa(dp1291
g8
F0.940010244976049
sg10
F0.042467060965329456
sg11
F0.017522694058621457
sa(dp1292
g8
F0.9243883296999332
sg10
F0.07561167030006678
sg11
F1.1434294203019678e-17
sa(dp1293
g8
F0.9599428515904177
sg10
F0.039984362284239586
sg11
F7.278612534289584e-05
sa(dp1294
g8
F0.996556173192153
sg10
F0.0034438268078470905
sg11
F5.1949948029069506e-30
sa(dp1295
g8
F0.8937460362187964
sg10
F0.10267182107779692
sg11
F0.00358214270340655
sa(dp1296
g8
F0.9967347837557651
sg10
F0.0032652162442348806
sg11
F1.429847411689086e-29
sa(dp1297
g8
F0.922249862160988
sg10
F0.06629720297458278
sg11
F0.011452934864429044
sa(dp1298
g8
F0.7742515230130118
sg10
F0.131304329031362
sg11
F0.09444414795562613
sa(dp1299
g8
F0.9311314972068339
sg10
F0.06886850279316627
sg11
F5.575620546334249e-17
sa(dp1300
g8
F0.9799559346474065
sg10
F0.020044064635695618
sg11
F7.168978478329826e-10
sa(dp1301
g8
F0.9965003812171038
sg10
F0.003499618782896156
sg11
F2.945213646982955e-30
sa(dp1302
g8
F0.2708983642851968
sg10
F0.7291016357148031
sg11
F2.517064512479981e-25
sa(dp1303
g8
F0.5722507480318398
sg10
F0.04225500197349012
sg11
F0.38549424999467
sa(dp1304
g8
F0.300912977755718
sg10
F0.699087022244282
sg11
F8.720910703809982e-23
sa(dp1305
g8
F0.9642638084974042
sg10
F0.03573619150259579
sg11
F5.889985699050173e-17
sa(dp1306
g8
F0.9794124924009602
sg10
F0.020587507197443525
sg11
F4.015963383745921e-10
sa(dp1307
g8
F0.9582186617544004
sg10
F0.04175734092372598
sg11
F2.399732187343365e-05
sa(dp1308
g8
F0.9241078152096146
sg10
F0.07589218479038536
sg11
F3.794948448747543e-18
sa(dp1309
g8
F0.26397750034132156
sg10
F0.6991318405132861
sg11
F0.0368906591453923
sa(dp1310
g8
F0.9911706041674718
sg10
F0.008829386657848206
sg11
F9.174679975466152e-09
sa(dp1311
g8
F0.8924248625753036
sg10
F0.10208397416687429
sg11
F0.005491163257822197
sa(dp1312
g8
F0.6930611217554914
sg10
F0.21783360110539604
sg11
F0.08910527713911241
sa(dp1313
g8
F0.997160973772537
sg10
F0.0028390262274631023
sg11
F8.50267235950422e-29
sa(dp1314
g8
F0.9218873563268547
sg10
F0.07811264367314538
sg11
F7.375357098368284e-19
sa(dp1315
g8
F0.851570406096357
sg10
F0.05758965318622236
sg11
F0.09083994071742038
sa(dp1316
g8
F0.7460799223811183
sg10
F0.2539200776188814
sg11
F3.130778551707309e-16
sa(dp1317
g8
F0.9656176007757591
sg10
F0.03414903667759326
sg11
F0.00023336254664747068
sa(dp1318
g8
F0.9793873796900978
sg10
F0.020612619911326027
sg11
F3.985761946557843e-10
sa(dp1319
g8
F0.9487064811102196
sg10
F0.04920236022501203
sg11
F0.0020911586647682527
sa(dp1320
g8
F0.9591203262003908
sg10
F0.04082023898592969
sg11
F5.943481367951059e-05
sa(dp1321
g8
F0.27685716895982454
sg10
F0.7231428310401753
sg11
F1.2152994478506827e-24
sa(dp1322
g8
F0.991070886919095
sg10
F0.008929105915187387
sg11
F7.165717849843915e-09
sa(dp1323
g8
F0.922233686338575
sg10
F0.07776631366142493
sg11
F1.2128818039167966e-18
sa(dp1324
g8
F0.9801021866491066
sg10
F0.019897812549141053
sg11
F8.017522683328689e-10
sa(dp1325
g8
F0.273481889909714
sg10
F0.7265181100902859
sg11
F6.660637928492968e-25
sa(dp1326
g8
F0.923720435706831
sg10
F0.020148424974522437
sg11
F0.056131139318646446
sa(dp1327
g8
F0.9583447418275223
sg10
F0.041349196293735006
sg11
F0.0003060618787428551
sa(dp1328
g8
F0.9478516622735712
sg10
F0.048337659091135084
sg11
F0.003810678635293704
sa(dp1329
g8
F0.9462402991537758
sg10
F0.04794675934160277
sg11
F0.005812941504621404
sa(dp1330
g8
F0.8106537060752612
sg10
F0.18115869481140445
sg11
F0.008187599113334299
sa(dp1331
g8
F0.8389287530893428
sg10
F0.08254629203531841
sg11
F0.07852495487533874
sa(dp1332
g8
F0.9805529740163736
sg10
F0.019447020749182354
sg11
F5.234443979871012e-09
sa(dp1333
g8
F0.958183056986894
sg10
F0.041793953164215546
sg11
F2.2989848890613818e-05
sa(dp1334
g8
F0.7396994890730172
sg10
F0.2603005109269827
sg11
F2.5020717245793864e-17
sa(dp1335
g8
F0.9831316255845177
sg10
F0.01686837185607008
sg11
F2.5594122136042324e-09
sa(dp1336
g8
F0.9791038257896844
sg10
F0.020896173987805498
sg11
F2.2251018833169027e-10
sa(dp1337
g8
F0.9965027616946055
sg10
F0.0034972383053945635
sg11
F3.0394130986130194e-30
sa(dp1338
g8
F0.2708979929895235
sg10
F0.7291020070104766
sg11
F2.5164690120999417e-25
sa(dp1339
g8
F0.7420703679952911
sg10
F0.03518422404679355
sg11
F0.22274540795791523
sa(dp1340
g8
F0.33393209057997136
sg10
F0.022204863938030336
sg11
F0.6438630454819984
sa(dp1341
g8
F0.12084456729407228
sg10
F0.030681374900574824
sg11
F0.848474057805353
sa(dp1342
g8
F0.0651480833716399
sg10
F0.005312941893242441
sg11
F0.9295389747351176
sa(dp1343
g8
F0.0339928074883837
sg10
F0.0007918694053747101
sg11
F0.9652153231062415
sa(dp1344
g8
F0.03967026786101186
sg10
F0.001485456393074648
sg11
F0.9588442757459134
sa(dp1345
g8
F0.24358668865701105
sg10
F0.013148791704570001
sg11
F0.7432645196384189
sa(dp1346
g8
F0.08809474832487947
sg10
F0.06747009998626527
sg11
F0.8444351516888554
sa(dp1347
g8
F0.06547154074915719
sg10
F0.004247509691198891
sg11
F0.9302809495596439
sa(dp1348
g8
F0.09932500741674131
sg10
F0.003714855819004139
sg11
F0.8969601367642545
sa(dp1349
g8
F0.05422476447515317
sg10
F0.004110112637075297
sg11
F0.9416651228877716
sa(dp1350
g8
F0.09450381571386965
sg10
F0.0031200554313543186
sg11
F0.902376128854776
sa(dp1351
g8
F0.08010866516557942
sg10
F0.0006307054425375255
sg11
F0.919260629391883
sa(dp1352
g8
F0.04776680853034251
sg10
F0.006077478202335239
sg11
F0.9461557132673222
sa(dp1353
g8
F0.04351666548029381
sg10
F0.0020515596090993782
sg11
F0.9544317749106068
sa(dp1354
g8
F0.030183273104820243
sg10
F0.0005379777650879887
sg11
F0.9692787491300917
sa(dp1355
g8
F0.027983244881960856
sg10
F0.00038784518558423694
sg11
F0.9716289099324548
sa(dp1356
g8
F0.03797237968201114
sg10
F0.008013691164614143
sg11
F0.9540139291533748
sa(dp1357
g8
F0.2478410500197384
sg10
F0.012967245093902707
sg11
F0.7391917048863589
sa(dp1358
g8
F0.9622253468483134
sg10
F0.028453896045018193
sg11
F0.009320757106668388
sa(dp1359
g8
F0.8084163430313706
sg10
F0.18344719590815495
sg11
F0.008136461060474425
sa(dp1360
g8
F0.838503529792811
sg10
F0.08232844697971312
sg11
F0.07916802322747604
sa(dp1361
g8
F0.9805523951180567
sg10
F0.019447599611284703
sg11
F5.270658635295628e-09
sa(dp1362
g8
F0.9791459860118059
sg10
F0.020854013741222553
sg11
F2.469713976447763e-10
sa(dp1363
g8
F0.7364236979907323
sg10
F0.26357630200926785
sg11
F1.4090450818889238e-17
sa(dp1364
g8
F0.9659287910226365
sg10
F0.03382904078758424
sg11
F0.0002421681897792419
sa(dp1365
g8
F0.8122231991341082
sg10
F0.1838156192745131
sg11
F0.003961181591378711
sa(dp1366
g8
F0.30277036651328143
sg10
F0.6972296334867185
sg11
F5.943479019296163e-24
sa(dp1367
g8
F0.9906163098289416
sg10
F0.009383683269083256
sg11
F6.9019753019875735e-09
sa(dp1368
g8
F0.996470612488771
sg10
F0.003529387511228903
sg11
F1.7672155844968374e-30
sa(dp1369
g8
F0.9756249307898598
sg10
F0.018665885220483965
sg11
F0.005709183989656107
sa(dp1370
g8
F0.7199245136072682
sg10
F0.24259626550849367
sg11
F0.03747922088423817
sa(dp1371
g8
F0.9517515316643573
sg10
F0.04824846833564266
sg11
F6.222344099213327e-19
sa(dp1372
g8
F0.7407149182719773
sg10
F0.2592850817280227
sg11
F2.8327848859877534e-17
sa(dp1373
g8
F0.7173486533596716
sg10
F0.04105383557088919
sg11
F0.24159751106943933
sa(dp1374
g8
F0.5610347547926109
sg10
F0.05890897336547676
sg11
F0.38005627184191243
sa(dp1375
g8
F0.2538591480497527
sg10
F0.03841904640609683
sg11
F0.7077218055441504
sa(dp1376
g8
F0.8083957301207108
sg10
F0.1916042698792839
sg11
F5.354364645742623e-15
sa(dp1377
g8
F0.9328118871411869
sg10
F0.06718811285881314
sg11
F1.57316194171414e-17
sa(dp1378
g8
F0.7182131487714202
sg10
F0.23283951740234804
sg11
F0.04894733382623185
sa(dp1379
g8
F0.3167721735070944
sg10
F0.6832278264929056
sg11
F1.541670989365562e-23
sa(dp1380
g8
F0.45184930556880964
sg10
F0.5481506944311905
sg11
F2.9273416652296424e-23
sa(dp1381
g8
F0.8306249913125311
sg10
F0.1693750086874687
sg11
F3.266312388781841e-16
sa(dp1382
g8
F0.4630094755521529
sg10
F0.46347782196191134
sg11
F0.07351270248593585
sa(dp1383
g8
F0.8227330345786722
sg10
F0.17726696542132733
sg11
F5.384379170368706e-16
sa(dp1384
g8
F0.3012106427462242
sg10
F0.6987893572537758
sg11
F5.113323388905242e-24
sa(dp1385
g8
F0.9246992821274604
sg10
F0.021286633918803068
sg11
F0.05401408395373651
sa(dp1386
g8
F0.2756854308812857
sg10
F0.7243145691187142
sg11
F8.495433335841758e-24
sa(dp1387
g8
F0.6946208231190659
sg10
F0.0055381686267626075
sg11
F0.2998410082541713
sa(dp1388
g8
F0.7469511611691356
sg10
F0.2530488388308633
sg11
F1.1347518677257817e-15
sa(dp1389
g8
F0.9830102024809276
sg10
F0.016989795030109136
sg11
F2.4889633515670497e-09
sa(dp1390
g8
F0.9488350737756307
sg10
F0.049351889490459974
sg11
F0.001813036733909424
sa(dp1391
g8
F0.9245678016955112
sg10
F0.0754321983044889
sg11
F5.158512464478663e-18
sa(dp1392
g8
F0.9467610915487225
sg10
F0.04694024850131436
sg11
F0.006298659949963288
sa(dp1393
g8
F0.7407477668105956
sg10
F0.2592522331894044
sg11
F4.5500590249675633e-17
sa(dp1394
g8
F0.7758156357940669
sg10
F0.2241843642059331
sg11
F1.4478491173192645e-16
sa(dp1395
g8
F0.7378827443005797
sg10
F0.10882978140200351
sg11
F0.15328747429741674
sa(dp1396
g8
F0.8817458947510662
sg10
F0.040601067289549035
sg11
F0.07765303795938482
sa(dp1397
g8
F0.559414781383252
sg10
F0.18244019988292243
sg11
F0.2581450187338256
sa(dp1398
g8
F0.33800043013891207
sg10
F0.046265871931495915
sg11
F0.6157336979295919
sa(dp1399
g8
F0.5039066813230851
sg10
F0.0848051280353507
sg11
F0.4112881906415643
sa(dp1400
g8
F0.7748690234212792
sg10
F0.22513097657871886
sg11
F1.9130152508349408e-15
sa(dp1401
g8
F0.46316701033852137
sg10
F0.43981694708391034
sg11
F0.09701604257756824
sa(dp1402
g8
F0.9515103879421799
sg10
F0.04848961205782
sg11
F8.64433281069489e-17
sa(dp1403
g8
F0.8129630947467724
sg10
F0.18180334588163116
sg11
F0.005233559371596356
sa(dp1404
g8
F0.932343485264381
sg10
F0.06765651473561883
sg11
F1.7264595415785097e-17
sa(dp1405
g8
F0.9470369767891933
sg10
F0.047261049642005226
sg11
F0.005701973568801473
sa(dp1406
g8
F0.9796238413899988
sg10
F0.020376157802076557
sg11
F8.07924696283648e-10
sa(dp1407
g8
F0.9582120632463169
sg10
F0.04176412614559699
sg11
F2.381060808616717e-05
sa(dp1408
g8
F0.9241082012108371
sg10
F0.07589179878916288
sg11
F3.795402001082664e-18
sa(dp1409
g8
F0.9966567107590839
sg10
F0.0033432892409162337
sg11
F9.131451781786465e-30
sa(dp1410
g8
F0.9788829223456507
sg10
F0.02111707756000595
sg11
F9.434338022697578e-11
sa(dp1411
g8
F0.9486885756151529
sg10
F0.049181539471114206
sg11
F0.002129884913733095
sa(dp1412
g8
F0.9796412519043104
sg10
F0.020358747455703582
sg11
F6.399860574415745e-10
sa(dp1413
g8
F0.9791608822797597
sg10
F0.020839117464626366
sg11
F2.5561388241042656e-10
sa(dp1414
g8
F0.9791687363578491
sg10
F0.020831263381980266
sg11
F2.601707462978647e-10
sa(dp1415
g8
F0.996502580353272
sg10
F0.0034974196467280226
sg11
F3.0322371206176494e-30
sa(dp1416
g8
F0.9964541851584502
sg10
F0.0035458148415497166
sg11
F1.1171528735541608e-30
sa(dp1417
g8
F0.9493123059766887
sg10
F0.04990681712688303
sg11
F0.0007808768964282768
sa(dp1418
g8
F0.9473634571110717
sg10
F0.04797059999292344
sg11
F0.004665942896004733
sa(dp1419
g8
F0.945920022037359
sg10
F0.04793688051576172
sg11
F0.006143097446879265
sa(dp1420
g8
F0.8105231813423468
sg10
F0.18111907297258112
sg11
F0.008357745685072183
sa(dp1421
g8
F0.6622926683376235
sg10
F0.19366880446798834
sg11
F0.14403852719438823
sa(dp1422
g8
F0.88266575845868
sg10
F0.0371945170579831
sg11
F0.08013972448333695
sa(dp1423
g8
F0.9249850283005252
sg10
F0.07501497169947481
sg11
F4.0093395274435514e-17
sa(dp1424
g8
F0.9966542514351505
sg10
F0.00334574856484945
sg11
F9.034131951348682e-30
sa(dp1425
g8
F0.9788829624862582
sg10
F0.021117037419375144
sg11
F9.436666953549743e-11
sa(dp1426
g8
F0.2736760619889048
sg10
F0.7263239380110952
sg11
F6.972058747463697e-25
sa(dp1427
g8
F0.9985252463401592
sg10
F0.0014747536598408988
sg11
F8.307273436810968e-29
sa(dp1428
g8
F0.8942299372051565
sg10
F0.1028871312534689
sg11
F0.002882931541374603
sa(dp1429
g8
F0.9446640747901331
sg10
F0.04572068794689733
sg11
F0.009615237262969426
sa(dp1430
g8
F0.9796139643891123
sg10
F0.020386034612437046
sg11
F9.984506495025011e-10
sa(dp1431
g8
F0.9582123716051428
sg10
F0.04176380906034694
sg11
F2.3819334510374997e-05
sa(dp1432
g8
F0.9241081831723315
sg10
F0.07589181682766853
sg11
F3.7953808061924686e-18
sa(dp1433
g8
F0.9260683481866158
sg10
F0.07393165181338436
sg11
F6.476010248492646e-18
sa(dp1434
g8
F0.9800391408335719
sg10
F0.019960858401254424
sg11
F7.651735133076848e-10
sa(dp1435
g8
F0.7362847575332852
sg10
F0.26371524246671485
sg11
F1.36294759426458e-17
sa(dp1436
g8
F0.9370913574543769
sg10
F0.06290864254562312
sg11
F2.1605257121991858e-17
sa(dp1437
g8
F0.925321020806687
sg10
F0.07467897919331304
sg11
F5.45029212092704e-18
sa(dp1438
g8
F0.8053935568972969
sg10
F0.13596534433015725
sg11
F0.05864109877254596
sa(dp1439
g8
F0.7932462713848946
sg10
F0.16178001587423863
sg11
F0.044973712740866756
sa(dp1440
g8
F0.7871898966935276
sg10
F0.07793490397548805
sg11
F0.13487519933098432
sa(dp1441
g8
F0.29013390305590625
sg10
F0.7098660969440937
sg11
F2.4525369655736773e-23
sa(dp1442
g8
F0.964967146612282
sg10
F0.035032853387717854
sg11
F5.986519918672496e-17
sa(dp1443
g8
F0.8252901583405885
sg10
F0.1439626629781496
sg11
F0.030747178681261998
sa(dp1444
g8
F0.7578478511336194
sg10
F0.24215214886638042
sg11
F1.7247261197326988e-16
sa(dp1445
g8
F0.9408498730585376
sg10
F0.040066645436188326
sg11
F0.0190834815052741
sa(dp1446
g8
F0.7401401078495247
sg10
F0.2598598921504753
sg11
F7.862703871385714e-17
sa(dp1447
g8
F0.7759222807886372
sg10
F0.22407771921136263
sg11
F1.451387381980055e-16
sa(dp1448
g8
F0.46316402795236783
sg10
F0.4402648853919181
sg11
F0.09657108665571396
sa(dp1449
g8
F0.7908093183418666
sg10
F0.11031738618584715
sg11
F0.0988732954722862
sa(dp1450
g8
F0.5097653690847342
sg10
F0.1549425333362427
sg11
F0.33529209757902306
sa(dp1451
g8
F0.6674488948334606
sg10
F0.1172042079116789
sg11
F0.21534689725486048
sa(dp1452
g8
F0.5792056842409724
sg10
F0.056394709032389745
sg11
F0.36439960672663785
sa(dp1453
g8
F0.44114841198084864
sg10
F0.04334668080855546
sg11
F0.5155049072105958
sa(dp1454
g8
F0.32428247533797044
sg10
F0.029752623188401855
sg11
F0.6459649014736276
sa(dp1455
g8
F0.12491662608895605
sg10
F0.016287732346226044
sg11
F0.8587956415648179
sa(dp1456
g8
F0.32855187701553135
sg10
F0.03615531710155542
sg11
F0.6352928058829133
sa(dp1457
g8
F0.24714673029849624
sg10
F0.02063269993733326
sg11
F0.7322205697641704
sa(dp1458
g8
F0.09687566652251606
sg10
F0.0114632228361728
sg11
F0.8916611106413113
sa(dp1459
g8
F0.9911819573964016
sg10
F0.008817860150268466
sg11
F1.8245332991934375e-07
sa(dp1460
g8
F0.8924273908785192
sg10
F0.10208519394086145
sg11
F0.005487415180619381
sa(dp1461
g8
F0.45734214002811413
sg10
F0.4854128372898171
sg11
F0.05724502268206873
sa(dp1462
g8
F0.909104878207948
sg10
F0.027893327413866915
sg11
F0.06300179437818505
sa(dp1463
g8
F0.7398512907377309
sg10
F0.26014870926226885
sg11
F2.0435430383108536e-16
sa(dp1464
g8
F0.8343701957613316
sg10
F0.07625273328933432
sg11
F0.08937707094933388
sa(dp1465
g8
F0.7492596929181777
sg10
F0.25074030708182216
sg11
F3.2027708945007183e-16
sa(dp1466
g8
F0.8364237625026534
sg10
F0.07716646115576023
sg11
F0.08640977634158649
sa(dp1467
g8
F0.7444442985006496
sg10
F0.07885682330106852
sg11
F0.17669887819828195
sa(dp1468
g8
F0.8723418995909918
sg10
F0.04111801187943067
sg11
F0.08654008852957752
sa(dp1469
g8
F0.9130917510888362
sg10
F0.045744416520324974
sg11
F0.04116383239083884
sa(dp1470
g8
F0.9315449301040337
sg10
F0.046944023895791546
sg11
F0.021511046000174852
sa(dp1471
g8
F0.9965902862326032
sg10
F0.0034097137673968227
sg11
F1.914376615489417e-29
sa(dp1472
g8
F0.9576829564751156
sg10
F0.04230820487251115
sg11
F8.838652373299437e-06
sa(dp1473
g8
F0.4626441843891987
sg10
F0.5170002830567583
sg11
F0.020355532554043
sa(dp1474
g8
F0.9979518724455454
sg10
F0.0020481275544545897
sg11
F7.254436820096565e-29
sa(dp1475
g8
F0.949365473677787
sg10
F0.04996864087334791
sg11
F0.0006658854488649926
sa(dp1476
g8
F0.7410117609864109
sg10
F0.2589882390135892
sg11
F3.110898242318177e-17
sa(dp1477
g8
F0.965780881670089
sg10
F0.033981135480088395
sg11
F0.00023798284982256196
sa(dp1478
g8
F0.9793846475487731
sg10
F0.020615352054007167
sg11
F3.97219649236307e-10
sa(dp1479
g8
F0.2735961289734617
sg10
F0.7264038710265383
sg11
F6.843859048329462e-25
sa(dp1480
g8
F0.6940270441196685
sg10
F0.005510428952463876
sg11
F0.3004625269278677
sa(dp1481
g8
F0.9966895655252676
sg10
F0.0033104344747324284
sg11
F2.4165851409030746e-28
sa(dp1482
g8
F0.7337056679122803
sg10
F0.2662943320877197
sg11
F5.0725775306954966e-18
sa(dp1483
g8
F0.8330335303190083
sg10
F0.07565798833258962
sg11
F0.09130848134840214
sa(dp1484
g8
F0.777086910657638
sg10
F0.16617664644644214
sg11
F0.056736442895919746
sa(dp1485
g8
F0.7953494018561438
sg10
F0.1576366393452923
sg11
F0.04701395879856403
sa(dp1486
g8
F0.931766940049596
sg10
F0.0682330599504039
sg11
F3.452873615311497e-17
sa(dp1487
g8
F0.9966352348246649
sg10
F0.0033647651753350356
sg11
F8.281610787721944e-30
sa(dp1488
g8
F0.8109832843604698
sg10
F0.18807190657427117
sg11
F0.0009448090652591837
sa(dp1489
g8
F0.7610446720908928
sg10
F0.046661693157564965
sg11
F0.19229363475154226
sa(dp1490
g8
F0.9804912367802404
sg10
F0.01950875083415807
sg11
F1.2385601575007646e-08
sa(dp1491
g8
F0.7362144505963096
sg10
F0.26378554940369026
sg11
F1.3396242877520154e-17
sa(dp1492
g8
F0.9831900114056146
sg10
F0.01680998600109825
sg11
F2.5932872714289767e-09
sa(dp1493
g8
F0.9488414562178021
sg10
F0.049359311079535485
sg11
F0.0017992327026623968
sa(dp1494
g8
F0.7409588248385316
sg10
F0.2590411751614684
sg11
F3.3994794203543786e-17
sa(dp1495
g8
F0.7757786026972018
sg10
F0.2242213973027981
sg11
F1.446620434262501e-16
sa(dp1496
g8
F0.4631644347741529
sg10
F0.44020378295495854
sg11
F0.09663178227088863
sa(dp1497
g8
F0.7907804761232986
sg10
F0.11031723504530314
sg11
F0.09890228883139825
sa(dp1498
g8
F0.7753585183995088
sg10
F0.16006678897112847
sg11
F0.06457469262936275
sa(dp1499
g8
F0.9969577599699515
sg10
F0.003042240030048551
sg11
F6.061014198048106e-29
sa(dp1500
g8
F0.978878008753627
sg10
F0.021121991154880598
sg11
F9.14925474253303e-11
sa(dp1501
g8
F0.7364653967678756
sg10
F0.26353460323212446
sg11
F1.4228798489439708e-17
sa(dp1502
g8
F0.9370805621287694
sg10
F0.06291943787123058
sg11
F2.159044037438438e-17
sa(dp1503
g8
F0.9472050590464776
sg10
F0.047456496777106026
sg11
F0.005338444176416569
sa(dp1504
g8
F0.8741281887851242
sg10
F0.09682064519588515
sg11
F0.02905116601899045
sa(dp1505
g8
F0.9345598604968737
sg10
F0.045174317043687885
sg11
F0.020265822459438507
sa(dp1506
g8
F0.8048091610656334
sg10
F0.1797446407080401
sg11
F0.015446198226326438
sa(dp1507
g8
F0.981878685162687
sg10
F0.018121312224675126
sg11
F2.6126381234403448e-09
sa(dp1508
g8
F0.9487949097196376
sg10
F0.04930518651880401
sg11
F0.0018999037615582577
sa(dp1509
g8
F0.9796423693756565
sg10
F0.02035762999513623
sg11
F6.292072154893928e-10
sa(dp1510
g8
F0.9582114848006781
sg10
F0.04176472096015757
sg11
F2.3794239164358625e-05
sa(dp1511
g8
F0.9588808376179401
sg10
F0.041076315038115395
sg11
F4.284734394456167e-05
sa(dp1512
g8
F0.9479635496616153
sg10
F0.04835657230000371
sg11
F0.0036798780383809735
sa(dp1513
g8
F0.8766745579088268
sg10
F0.09706265191854269
sg11
F0.026262790172630508
sa(dp1514
g8
F0.96073713169588
sg10
F0.03903997747335084
sg11
F0.0002228908307689894
sa(dp1515
g8
F0.9587961147631124
sg10
F0.04116249259009904
sg11
F4.139264678861803e-05
sa(dp1516
g8
F0.7396009140319125
sg10
F0.2603990859680874
sg11
F2.47431643905619e-17
sa(dp1517
g8
F0.9658263546674631
sg10
F0.03393437574898461
sg11
F0.00023926958355225411
sa(dp1518
g8
F0.9236630291010458
sg10
F0.07633697089895422
sg11
F3.2723246196730742e-18
sa(dp1519
g8
F0.9260940047439036
sg10
F0.07390599525609655
sg11
F6.511224261263787e-18
sa(dp1520
g8
F0.7447869256263997
sg10
F0.25521307437360036
sg11
F4.1837943523639845e-17
sa(dp1521
g8
F0.7751076129989038
sg10
F0.22489238700109598
sg11
F1.4243583567331757e-16
sa(dp1522
g8
F0.7698397517891551
sg10
F0.2301602482108447
sg11
F1.249581404176907e-16
sa(dp1523
g8
F0.7354058577783772
sg10
F0.1078342118405672
sg11
F0.15675993038105573
sa(dp1524
g8
F0.9309598096805759
sg10
F0.06904019031942389
sg11
F8.760133436807733e-17
sa(dp1525
g8
F0.7440107161182397
sg10
F0.25598928388176045
sg11
F3.9262637778485595e-17
sa(dp1526
g8
F0.7752435592173554
sg10
F0.22475644078264437
sg11
F1.4288687765841297e-16
sa(dp1527
g8
F0.9414662898164127
sg10
F0.04078341882620273
sg11
F0.01775029135738452
sa(dp1528
g8
F0.8056177190406669
sg10
F0.18067604717006758
sg11
F0.013706233789265448
sa(dp1529
g8
F0.8304203308549595
sg10
F0.08159601212573415
sg11
F0.08798365701930638
sa(dp1530
g8
F0.7501248648082159
sg10
F0.2498751351917839
sg11
F3.1906037989510416e-16
sa(dp1531
g8
F0.9971478182675815
sg10
F0.002852181732418626
sg11
F2.856545102368962e-29
sa(dp1532
g8
F0.921888104020291
sg10
F0.07811189597970905
sg11
F7.385619303823222e-19
sa(dp1533
g8
F0.46275311740315933
sg10
F0.5019814326695412
sg11
F0.03526544992729968
sa(dp1534
g8
F0.9530758988946504
sg10
F0.04692410110534965
sg11
F5.909452106255033e-17
sa(dp1535
g8
F0.9244034758351004
sg10
F0.07559652416489959
sg11
F4.190947775343449e-18
sa(dp1536
g8
F0.9800665100742696
sg10
F0.01993348914467741
sg11
F7.810529613283323e-10
sa(dp1537
g8
F0.9965000723209717
sg10
F0.003499927679028281
sg11
F2.9329901135795203e-30
sa(dp1538
g8
F0.9493139349555224
sg10
F0.04990871131399908
sg11
F0.0007773537304785546
sa(dp1539
g8
F0.741006558566222
sg10
F0.25899344143377795
sg11
F3.139259167658373e-17
sa(dp1540
g8
F0.9368092990088009
sg10
F0.06319070099119904
sg11
F2.121812764108375e-17
sa(dp1541
g8
F0.8792788490024188
sg10
F0.09623469301060918
sg11
F0.024486457986972025
sa(dp1542
g8
F0.8053605949765684
sg10
F0.1719893547032364
sg11
F0.02265005032019508
sa(dp1543
g8
F0.9321235472921302
sg10
F0.06787645270786984
sg11
F2.4338763791430244e-17
sa(dp1544
g8
F0.9256067547548751
sg10
F0.07439324524512506
sg11
F5.842466284739001e-18
sa(dp1545
g8
F0.9599045359439408
sg10
F0.04002376213535523
sg11
F7.170192070401857e-05
sa(dp1546
g8
F0.7394231145107054
sg10
F0.26057688548929464
sg11
F2.4234751689316782e-17
sa(dp1547
g8
F0.7760481574546633
sg10
F0.22395184254533662
sg11
F1.4555637145009746e-16
sa(dp1548
g8
F0.2696020051548399
sg10
F0.6245929120871815
sg11
F0.10580508275797847
sa(dp1549
g8
F0.629899442754009
sg10
F0.031137336608684996
sg11
F0.33896322063730594
sa(dp1550
g8
F0.22985730829580447
sg10
F0.01475961222583996
sg11
F0.7553830794783556
sa(dp1551
g8
F0.36503200873457087
sg10
F0.6349679912654291
sg11
F3.739753040715217e-22
sa(dp1552
g8
F0.8401961371374582
sg10
F0.09557691720325401
sg11
F0.06422694565928765
sa(dp1553
g8
F0.9203595462441089
sg10
F0.04412698367709387
sg11
F0.03551347007879734
sa(dp1554
g8
F0.716316421059702
sg10
F0.12314998437999272
sg11
F0.16053359456030536
sa(dp1555
g8
F0.3972118235335692
sg10
F0.02456431324181339
sg11
F0.5782238632246175
sa(dp1556
g8
F0.9832929090356526
sg10
F0.016707032704293343
sg11
F5.826005412873433e-08
sa(dp1557
g8
F0.7356491813097115
sg10
F0.24853003865494844
sg11
F0.01582078003533998
sa(dp1558
g8
F0.8156284583109359
sg10
F0.15124032627446166
sg11
F0.033131215414602455
sa(dp1559
g8
F0.9309749043737757
sg10
F0.04277219560090484
sg11
F0.026252900025319527
sa(dp1560
g8
F0.9376117240298447
sg10
F0.04751541959306477
sg11
F0.014872856377090534
sa(dp1561
g8
F0.959107520947799
sg10
F0.04077199266984995
sg11
F0.00012048638235091597
sa(dp1562
g8
F0.8125761219212889
sg10
F0.1828641105418411
sg11
F0.004559767536870036
sa(dp1563
g8
F0.8171489174571411
sg10
F0.16223660880822602
sg11
F0.020614473734632946
sa(dp1564
g8
F0.9816137495907375
sg10
F0.0183862476855979
sg11
F2.7236645112156967e-09
sa(dp1565
g8
F0.9791286357598095
sg10
F0.020871364003285733
sg11
F2.369047730369487e-10
sa(dp1566
g8
F0.9791692636042434
sg10
F0.02083073613528001
sg11
F2.6047665015850056e-10
sa(dp1567
g8
F0.9486987391676891
sg10
F0.049193357785866594
sg11
F0.002107903046444456
sa(dp1568
g8
F0.9468728136959421
sg10
F0.04796124699258966
sg11
F0.005165939311468174
sa(dp1569
g8
F0.9457253779859075
sg10
F0.04792261437214484
sg11
F0.006352007641947592
sa(dp1570
g8
F0.9590934862004648
sg10
F0.04082751307156537
sg11
F7.90007279698358e-05
sa(dp1571
g8
F0.8125948369973228
sg10
F0.182861490414326
sg11
F0.004543672588351215
sa(dp1572
g8
F0.9818662719937773
sg10
F0.01813372595355375
sg11
F2.0526690373724707e-09
sa(dp1573
g8
F0.9487944693047163
sg10
F0.04930467416495176
sg11
F0.0019008565303317835
sa(dp1574
g8
F0.2783238194545906
sg10
F0.7216761805454095
sg11
F1.696890345736832e-24
sa(dp1575
g8
F0.9238913440900755
sg10
F0.020347158347155225
sg11
F0.05576149756276939
sa(dp1576
g8
F0.23110528042656053
sg10
F0.6341074469725775
sg11
F0.13478727260086198
sa(dp1577
g8
F0.33161078796303045
sg10
F0.009536750435616376
sg11
F0.6588524616013531
sa(dp1578
g8
F0.9840031651424048
sg10
F0.01599675894566143
sg11
F7.591193371384033e-08
sa(dp1579
g8
F0.9790895810736728
sg10
F0.020910418712078063
sg11
F2.1424912711279807e-10
sa(dp1580
g8
F0.889473664913952
sg10
F0.10077084342834434
sg11
F0.009755491657703667
sa(dp1581
g8
F0.9967344098107799
sg10
F0.003265590189220205
sg11
F1.7893192552885434e-29
sa(dp1582
g8
F0.2708618667574898
sg10
F0.7291381332425102
sg11
F2.4585281675096497e-25
sa(dp1583
g8
F0.9236279579663379
sg10
F0.020040891260185045
sg11
F0.05633115077347696
sa(dp1584
g8
F0.7994505450591733
sg10
F0.08970275234534747
sg11
F0.11084670259547923
sa(dp1585
g8
F0.4920920900521069
sg10
F0.03200967570778902
sg11
F0.47589823424010413
sa(dp1586
g8
F0.1985878118241944
sg10
F0.02967856712654908
sg11
F0.7717336210492565
sa(dp1587
g8
F0.9522983944534448
sg10
F0.04770160554655425
sg11
F9.581558210214074e-16
sa(dp1588
g8
F0.8129283873380708
sg10
F0.1819132379700012
sg11
F0.005158374691927878
sa(dp1589
g8
F0.9969603845447523
sg10
F0.0030396154552476923
sg11
F2.4152734861816957e-29
sa(dp1590
g8
F0.9218987570235457
sg10
F0.07810124297645438
sg11
F7.531833384088584e-19
sa(dp1591
g8
F0.28308839484693205
sg10
F0.7169116051530681
sg11
F2.2067973272336175e-24
sa(dp1592
g8
F0.8442380062441787
sg10
F0.08277937760932505
sg11
F0.0729826161464964
sa(dp1593
g8
F0.7495797074712615
sg10
F0.2504202925287384
sg11
F2.6997804137352567e-16
sa(dp1594
g8
F0.8220179413211708
sg10
F0.15313350168500708
sg11
F0.024848556993822005
sa(dp1595
g8
F0.7010819903443627
sg10
F0.10969573259524507
sg11
F0.1892222770603922
sa(dp1596
g8
F0.4218551255759253
sg10
F0.06518194737301973
sg11
F0.5129629270510551
sa(dp1597
g8
F0.6918816562142052
sg10
F0.02799464003894234
sg11
F0.2801237037468526
sa(dp1598
g8
F0.6901826674364591
sg10
F0.14657743424005085
sg11
F0.16323989832349017
sa(dp1599
g8
F0.7489824575101635
sg10
F0.14552018015231397
sg11
F0.10549736233752241
sasS'N'
p1600
I3
sS'states'
p1601
(lp1602
g8
ag10
ag11
asS'clist'
p1603
(lp1604
F4.239375300652101
aF4.807807182229737
aF7.00306245212718
aF40.375477789593134
aF21.901985143445206
aF8.371808420172725
aF41.62884279197925
aF20.349670914145292
aF13.811041673604338
aF9.277964165771113
aF19.376682517871913
aF78.97440564974805
aF9.185552930287743
aF21.979817268137293
aF14.197353471116195
aF68.24447538013067
aF13.997585365941804
aF15.673109397329078
aF17.360214313566296
aF5.231552514844535
aF5.3702301122928
aF5.3804758768462895
aF4.987359372942131
aF13.263139793479102
aF6.514539744539629
aF16.5113430477954
aF16.361481543808434
aF5.4478700617387945
aF21.237257714152033
aF5.083399662973365
aF7.040151139213456
aF5.184574787403081
aF5.360844001832102
aF7.0692923846297635
aF13.65797230808068
aF22.04795816987095
aF59.86494606158796
aF9.644572850882659
aF118.15720682348771
aF14.200931073224918
aF25.519132953887137
aF10.038999781024398
aF14.893851299708107
aF9.421838804094174
aF28.442658518904594
aF8.961949791239293
aF30.441044577392415
aF13.79691017884205
aF64.35757908150501
aF11.962024369340288
aF11.039491681248583
aF23.638592812856928
aF10.468704857610732
aF10.638593844784461
aF11.042172453572029
aF38.88092445991575
aF13.866413655405207
aF11.192964337518026
aF10.47549720217619
aF10.041910513786407
aF9.79833489048648
aF8.032025960887482
aF18.741072897958986
aF10.711314572643253
aF7.760556478002244
aF13.959689182123803
aF9.521182028122036
aF18.037956318063106
aF8.615839010275977
aF31.917776838358517
aF21.05896397283819
aF14.593366987031589
aF5.391350627027509
aF5.394215182180025
aF29.08941669872493
aF11.5105910113481
aF29.039319365700972
aF21.030362167881034
aF21.452210681644296
aF519.7453382122867
aF8.643199634371944
aF18.996707052740813
aF13.513093055242491
aF9.298879594452735
aF10.625343648449878
aF10.34232901239203
aF6.294560541666713
aF5.219858462691917
aF4.970757045727339
aF74.08721623984374
aF13.976497151385287
aF56.78465569435891
aF16.440115316949385
aF9.30679106150009
aF13.697510760692364
aF14.874099512466792
aF7.768166791987431
aF8.73046283437647
aF24.26063790478917
aF11.317201022945417
aF10.09638494273514
aF11.45799965763523
aF12.734077461012172
aF9.45857674190037
aF9.128010457789578
aF22.406650302398575
aF12.332767294908578
aF10.054763148340088
aF12.296558230392169
aF12.725368247190822
aF26.231858836013096
aF12.04417671596221
aF15.039924459291258
aF9.323846345724077
aF25.213454788757417
aF11.29264053763308
aF13.895177336906634
aF36.60742173616096
aF9.781656318221485
aF9.370808352147394
aF9.473983597947745
aF58.320855965663384
aF8.282106630598188
aF7.9924027435407305
aF9.416026959036069
aF18.685233767272255
aF9.906546184820643
aF9.325984465884117
aF19.464589150596705
aF8.293790974437158
aF21.264884299108243
aF10.68926477681179
aF10.220555365884634
aF8.739221677712463
aF14.11614231508678
aF13.911377500984372
aF7.7666926004861025
aF8.23868200558232
aF8.234061758714887
aF17.88808651758187
aF7.767739651912486
aF14.193650957757443
aF18.22974327283627
aF7.7677422168165
aF17.883858059671393
aF9.273203736641968
aF9.01972262990124
aF9.124363458069926
aF7.760817966072923
aF67.8519119495453
aF10.151866292230416
aF9.27342650692855
aF42.527278464798556
aF18.290138123083523
aF7.767755389577565
aF8.710641121989791
aF19.04192048218456
aF9.69377032305121
aF8.228959717594922
aF9.330979592081407
aF36.4311841548068
aF8.076714818660225
aF13.19161787853451
aF127.40765767220411
aF8.217240114790211
aF9.331682000499042
aF14.13555101255206
aF8.204925659662269
aF14.116691628034609
aF7.8621545345842385
aF39.85587732967459
aF15.418544418351196
aF21.517217830249585
aF8.528807895465542
aF8.746904656312593
aF9.170674748200422
aF8.353466213865202
aF8.226000215317711
aF8.233337995576205
aF28.738164429782756
aF10.028782918152917
aF36.5768177704527
aF7.788144933653549
aF8.527507048884171
aF20.058484831556694
aF8.773124357862462
aF8.201934081063829
aF13.947562093230738
aF13.914906666557023
aF8.207377333587761
aF8.234427414095359
aF8.756806601082301
aF9.389420658424084
aF8.188193879717286
aF13.948490615453519
aF8.206663226096005
aF9.304805961384812
aF9.286592119739364
aF9.376425617167397
aF9.277794189844816
aF7.76719958997987
aF13.947288068635737
aF8.207257768571788
aF20.056822218820567
aF18.316061559162055
aF7.767796578236543
aF9.29753305458118
aF8.190843529623669
aF9.333264453999632
aF7.788879504145952
aF8.332440185757198
aF13.946921311272538
aF17.867130720717526
aF14.364593451235132
aF17.960759905097156
aF30.919033248858852
aF20.437316559580808
aF9.008907347830885
aF9.301472192882034
aF17.853127568879856
aF19.171636470571727
aF15.300087308953682
aF31.47694898449592
aF8.756892945144102
aF9.28600675451818
aF13.896248866201597
aF8.207743372378898
aF70.05059562719019
aF9.924082129820926
aF14.34594188368513
aF40.44379488558112
aF19.442121727583213
aF8.177205404348621
aF28.621067499190463
aF9.488800026899687
aF14.113697287315526
aF9.287088497087504
aF7.767207708161444
aF13.947060670771645
aF19.618794578747885
aF9.617784754886635
aF8.181943065051358
aF9.305634275113727
aF19.365089278917093
aF7.745519169979289
aF14.58228083763333
aF7.767584484364953
aF7.779017103688327
aF9.328612675435815
aF13.658142095971321
aF9.967209982460517
aF13.895202528823557
aF8.68775985052911
aF9.391846934212333
aF9.277222649514812
aF17.853679042026588
aF19.171608668182124
aF12.223314730415446
aF13.773923169796781
aF15.166316712359908
aF5.860015306429386
aF5.107390003478162
aF5.349211881898442
aF14.012421789650562
aF18.39117073428214
aF5.845865814463178
aF7.173133499294331
aF5.649130059053024
aF7.129580798937132
aF22.029743715367108
aF11.92621742722568
aF5.426110768383831
aF4.998578588077752
aF4.93549431545019
aF15.951101877338257
aF13.988438049578042
aF36.51359443931267
aF9.324259595821687
aF13.651686180764822
aF9.972878285542249
aF9.278422478298571
aF8.643061606388835
aF14.122842899828598
aF9.29869160014923
aF21.629208746519005
aF9.604848267126695
aF17.846231198602514
aF65.97611933455238
aF41.9013406578242
aF116.61607336495649
aF8.701398534137555
aF24.25718288797726
aF11.316082610959754
aF9.731573801191608
aF23.275138879762764
aF8.32664723059257
aF41.66981692845453
aF23.562613893230917
aF32.72113065911443
aF9.923679668679458
aF36.793975982111114
aF10.453352395341762
aF21.441401070499648
aF7.746368834109784
aF20.445461825406046
aF48.13310780186802
aF11.692042197650737
aF9.388391440023582
aF7.767319337577762
aF8.226234855535026
aF7.7655190580101205
aF8.747514660178231
aF9.178574710123788
aF19.393076507217383
aF8.308427975391012
aF34.6810284770293
aF11.329729478041552
aF11.904579480506925
aF13.906616747940218
aF36.875607319680086
aF9.332942368264046
aF9.309843936725025
aF8.356490333390854
aF7.76575853356831
aF9.336146614443237
aF13.89605494645638
aF8.207747382486765
aF17.889344110657063
aF9.270936095026233
aF7.767192164614373
aF9.30895115116274
aF9.27884636503491
aF9.279069875729686
aF17.8536370315998
aF17.842425409738784
aF7.767733578432289
aF7.768896836932289
aF7.781876318770099
aF9.329698122489456
aF38.845534067656935
aF8.270492226424839
aF8.804427970914611
aF17.888774363999243
aF9.270937237359382
aF19.379628752353927
aF18.322224012306087
aF14.371424915353357
aF7.774246136800766
aF9.366389705415788
aF13.89606401106292
aF8.207747195094074
aF8.234399170346691
aF9.303840098859256
aF8.64117278614278
aF8.385188129952779
aF8.224176125498659
aF21.0613594051427
aF9.582413942005646
aF13.218764228856216
aF23.206359131999374
aF8.766514240020804
aF21.55303116316112
aF9.167965432688904
aF7.760387966745155
aF8.833309602902798
aF9.18002449389716
aF36.87406190754221
aF9.995091465516479
aF32.296897732422686
aF10.677975924781324
aF11.405041404142354
aF10.220878220204758
aF9.178184377648103
aF7.095280223241411
aF13.327397592717496
aF8.487639165183365
aF6.5217533112947885
aF36.873759361003444
aF14.345979075906103
aF36.42919733201484
aF7.946917832696691
aF9.16844531692788
aF13.52635601215556
aF9.52305979963667
aF13.555347206435288
aF12.930565080434143
aF8.399363786760773
aF8.064734601618875
aF7.905452580338972
aF18.198436971871214
aF13.880504946196375
aF36.608852550846976
aF18.501557055296338
aF7.767779729378516
aF8.710241507563534
aF14.118495971738685
aF9.287046303436053
aF19.37364342262539
aF48.09540441873269
aF23.832379986704854
aF8.606111385632243
aF13.507485660028383
aF9.64483223528272
aF9.601918099268808
aF8.649413138405825
aF17.884368823874627
aF9.273162610114905
aF25.693536307979773
aF11.0832581233351
aF8.640217082768299
aF9.393508494982406
aF7.767324878084768
aF8.717715537565374
aF9.178071264245911
aF36.87427271435657
aF9.995264753133497
aF9.70241477976705
aF18.974708192207704
aF9.270796262587579
aF8.643628478673197
aF8.385040455585695
aF7.765904433335606
aF14.13313372739022
aF7.8624186058786965
aF9.374430152663022
aF9.477532343348757
aF7.767284474585435
aF9.307205658337638
aF13.896037944368535
aF13.915985663341372
aF7.766719430203367
aF14.154996047182099
aF14.282960337282935
aF13.915805319641205
aF8.68655225349347
aF14.119832383846601
aF8.203122572017183
aF8.234750138533919
aF8.756755376821705
aF9.168949504892746
aF9.09733564497344
aF19.331869312900594
aF9.541034576659051
aF8.746203208347234
aF9.1707976237131
aF7.760923032509878
aF9.362399295213802
aF13.582852235854734
aF9.523882421315337
aF18.00311800510718
aF8.177215632400927
aF36.66113637835565
aF8.862920140797158
aF8.21162459367132
aF9.304618980714396
aF17.853056008479943
aF7.767734992428249
aF8.710976033622917
aF8.381329719012228
aF14.160353176579507
aF9.431137316479054
aF8.476368801108594
aF8.228084815378601
aF13.945795247524131
aF8.684353261178227
aF9.18173572233864
aF71.89986754945816
aF11.364810980492893
aF10.765691754645617
aF70.13127848707157
aF9.814409489785643
aF7.983916511452298
aF19.285950065477454
aF15.451619041634995
aF18.04511620202754
aF42.60937941477574
aF9.53038549658366
aF7.874592940923374
aF7.854617623303675
aF14.0971504440108
aF9.303946743600985
aF9.436240536394038
aF9.511168309547532
aF9.277928700164267
aF9.27908488011786
aF7.7672009874493515
aF7.773326988737361
aF7.783542469545556
aF13.996069755712428
aF9.303855330149682
aF9.391206109346983
aF7.767284090246999
aF19.758781697078593
aF7.74566752289736
aF64.2071863051373
aF12.833676199057244
aF20.746668851526113
aF9.27681783325799
aF14.304278322319849
aF18.053326881692918
aF19.168903558346706
aF7.74543889689731
aF13.49165044978157
aF18.240032995726146
aF8.615344176870105
aF23.848708881594742
aF9.309200888379001
aF18.03681557063795
aF8.177361359873203
aF20.084418394129184
aF9.889296015204796
aF9.389947822351477
aF9.477609388860223
aF18.773701192396835
aF13.127966548757026
aF9.944994286924418
aF10.315067610747976
aF9.972354305244851
asS'logB'
p1605
(dp1606
g8
(dp1607
g16
F-2.9212348804951955
sg17
F-2.5633371230760758
sg18
F-2.2705196883974508
sg19
F-5.11102215480017
sg20
F-2.6570023729358256
sg21
F-2.394531914401664
sg22
F-2.5567896167969173
sg23
F-3.093728761473657
sg24
F-3.955377711169584
sg25
F-2.5311773915230478
sg26
F-2.3856993883549533
sg27
F-2.744681015196079
sg28
F-2.319990802883572
sg29
F-2.6363994576488694
sg30
F-3.0060044723555492
sg31
F-6.771947206302559
ssg10
(dp1608
V11
p1609
F-2.2061636400830515
sV10
p1610
F-2.7886349913133275
sV13
p1611
F-2.2366278495501097
sV12
p1612
F-4.803495959222991
sV15
p1613
F-2.3946538192158955
sV14
p1614
F-3.4340383811510673
sV1
p1615
F-4.3946466318475315
sV0
p1616
F-2.883896900512308
sV3
p1617
F-2.4577642134121223
sV2
p1618
F-2.428127950235306
sV5
p1619
F-3.4036523078985326
sV4
p1620
F-2.347181559984261
sV7
p1621
F-3.329045325183329
sV6
p1622
F-2.1769737091555577
sV9
p1623
F-3.144112388866956
sV8
p1624
F-3.626896918534498
ssg11
(dp1625
V11
p1626
F-3.776462439005156
sV10
p1627
F-2.56023877712607
sV13
p1628
F-2.2875507466486336
sV12
p1629
F-4.0011284607127555
sV15
p1630
F-2.352279906055419
sV14
p1631
F-3.184664319984376
sV1
p1632
F-4.212541507026543
sV0
p1633
F-2.2779335809252834
sV3
p1634
F-2.523757470272191
sV2
p1635
F-2.89618699908023
sV5
p1636
F-2.2244950581471348
sV4
p1637
F-2.159180925692466
sV7
p1638
F-3.3688691655609246
sV6
p1639
F-3.3780880383582845
sV9
p1640
F-2.504124323723734
sV8
p1641
F-4.078634034718041
sssS'logA'
p1642
(dp1643
g8
(dp1644
Vq1
p1645
F-0.12159375102178108
sVq3
p1646
F-2.1714793139375113
sVq2
p1647
F-7.635223578707189
ssg10
(dp1648
Vq1
p1649
F-0.051018605614936104
sVq3
p1650
F-3.3863773220688
sVq2
p1651
F-4.140933416759925
ssg11
(dp1652
Vq1
p1653
F-0.02848274252499949
sVq3
p1654
F-3.5815404521278484
sVq2
p1655
F-8.301505382807537
sssS'model'
p1656
(dp1657
VA
p1658
(dp1659
g8
(dp1660
g1645
F0.8855080321744565
sg1646
F0.11400883724062709
sg1647
F0.00048313058491640786
ssg10
(dp1661
g1649
F0.9502609901778785
sg1650
F0.033831014039701346
sg1651
F0.01590799578242019
ssg11
(dp1662
g1653
F0.9719190668704077
sg1654
F0.027832790133992855
sg1655
F0.0002481429955994003
sssVB
p1663
(dp1664
Vq1
p1665
(dp1666
g16
F0.05386712674749742
sg17
F0.077047194979542
sg18
F0.103258503890451
sg19
F0.00602991626464192
sg20
F0.07015821501075101
sg21
F0.09121536553027698
sg22
F0.07755331708317478
sg23
F0.045332604399164866
sg24
F0.01915143347300857
sg25
F0.07956528562270637
sg26
F0.09202459613648334
sg27
F0.06426879844520396
sg28
F0.0982744894421265
sg29
F0.07161867194567796
sg30
F0.0494890190022545
sg31
F0.0011454620270388422
ssVq3
p1667
(dp1668
g1609
F0.1101223079879357
sg1610
F0.061505111653083845
sg1611
F0.1068181044446883
sg1612
F0.008201026421244215
sg1613
F0.09120424661582534
sg1614
F0.032256413698180074
sg1615
F0.012343241263237551
sg1616
F0.05591643692155573
sg1617
F0.08562617897768209
sg1618
F0.08820179627603751
sg1619
F0.03325160282102376
sg1620
F0.09563833362215457
sg1621
F0.03582729215985531
sg1622
F0.11338414535406975
sg1623
F0.04310516769831538
sg1624
F0.026598594085111
ssVq2
p1669
(dp1670
g1626
F0.022903571062053995
sg1627
F0.07728628404311588
sg1628
F0.10151479306384253
sg1629
F0.018294982067217063
sg1630
F0.09515197715995265
sg1631
F0.04139213798270078
sg1632
F0.014808684096303926
sg1633
F0.10249578728310807
sg1634
F0.08015784944613936
sg1635
F0.055233424144602555
sg1636
F0.10812200017652181
sg1637
F0.11541961957709766
sg1638
F0.034428548326521306
sg1639
F0.03411261443362269
sg1640
F0.08174715069273093
sg1641
F0.016930576444468923
sssVpi
p1671
(dp1672
Vq1
p1673
F0.3333333333333333
sVq3
p1674
F0.3333333333333333
sVq2
p1675
F0.3333333333333333
sssS'pi'
p1676
(dp1677
g8
F5.701555799224582e-63
sg10
F2.385561817529488e-59
sg11
F1.0
ssS'bwk_scaled'
p1678
(lp1679
(dp1680
g8
F1.3727623939285618
sg10
F2.0012375284201083
sg11
F4.239375300652103
sa(dp1681
g8
F10.125066362086068
sg10
F9.585678989956792
sg11
F4.679061397591852
sa(dp1682
g8
F30.49281336975452
sg10
F28.978985111613618
sg11
F4.914116773830223
sa(dp1683
g8
F40.384316393055734
sg10
F39.27610198211336
sg11
F30.461642470253274
sa(dp1684
g8
F22.531665786619126
sg10
F19.73142136452715
sg11
F3.293784150567619
sa(dp1685
g8
F8.07131483599901
sg10
F12.39861087548481
sg11
F35.29841788791239
sa(dp1686
g8
F40.27838916855745
sg10
F44.52321912120647
sg11
F47.5214874033213
sa(dp1687
g8
F30.31688335370809
sg10
F28.818568763582984
sg11
F4.887123596193736
sa(dp1688
g8
F13.821536702159209
sg10
F13.253089941702894
sg11
F2.251047344212399
sa(dp1689
g8
F9.384347296143492
sg10
F4.286959183394884
sg11
F0.5832659090319091
sa(dp1690
g8
F25.23395510280408
sg10
F17.170121604690422
sg11
F40.727674476956096
sa(dp1691
g8
F92.35052685134161
sg10
F89.34185292597323
sg11
F58.90864033374829
sa(dp1692
g8
F27.004130972611257
sg10
F19.403126291934743
sg11
F3.0960550435050935
sa(dp1693
g8
F17.859505738948453
sg10
F96.73311384972108
sg11
F453.08344436505604
sa(dp1694
g8
F9.192802236154659
sg10
F30.05689617148163
sg11
F152.78962343312904
sa(dp1695
g8
F2.116251203785524
sg10
F58.850239237479
sg11
F310.85966377175606
sa(dp1696
g8
F0.5351386959585047
sg10
F4.411196180933243
sg11
F22.417175974958013
sa(dp1697
g8
F0.8660776422494706
sg10
F3.6044410898166617
sg11
F18.53118047953529
sa(dp1698
g8
F0.09123387064610965
sg10
F3.599362763274004
sg11
F19.201576114337673
sa(dp1699
g8
F0.05672343703507301
sg10
F1.0289376919710653
sg11
F5.445115755531077
sa(dp1700
g8
F0.05962560633936682
sg10
F1.0593849166847447
sg11
F5.603388983028936
sa(dp1701
g8
F0.061798666704030676
sg10
F1.084681168195276
sg11
F5.61728408426324
sa(dp1702
g8
F0.26281455026626643
sg10
F1.1031248154403042
sg11
F5.134556860678136
sa(dp1703
g8
F0.22538949835470123
sg10
F3.7083670788412317
sg11
F19.122542619180226
sa(dp1704
g8
F0.40691472807388945
sg10
F1.4399451574761744
sg11
F7.089765429514613
sa(dp1705
g8
F0.8437532194575396
sg10
F3.448788576615853
sg11
F17.648197259803297
sa(dp1706
g8
F0.16278575338326567
sg10
F3.262797225409136
sg11
F17.355559924014965
sa(dp1707
g8
F0.03217784385994434
sg10
F1.0789331318854558
sg11
F5.7116825322410865
sa(dp1708
g8
F0.22916922722198954
sg10
F4.359580188212508
sg11
F22.677529320900383
sa(dp1709
g8
F0.23597595829803214
sg10
F1.1387346127081073
sg11
F5.252427612131188
sa(dp1710
g8
F0.5116307380021448
sg10
F1.8594672895588782
sg11
F7.654537280432782
sa(dp1711
g8
F2.191400842764413
sg10
F2.7842139792745053
sg11
F5.300869210511524
sa(dp1712
g8
F9.365292162692015
sg10
F9.083971858050797
sg11
F5.186524730053127
sa(dp1713
g8
F25.52584700782785
sg10
F22.008336281753675
sg11
F5.252186926523397
sa(dp1714
g8
F35.18105366267488
sg10
F26.228442409730285
sg11
F4.224119192069575
sa(dp1715
g8
F21.728879842110278
sg10
F23.308341915737262
sg11
F17.50911457364324
sa(dp1716
g8
F65.51017366130219
sg10
F56.049175852625424
sg11
F13.737018352874891
sa(dp1717
g8
F10.540779192313924
sg10
F8.470045464126516
sg11
F1.3882989093849614
sa(dp1718
g8
F101.99911034414652
sg10
F417.68833964246136
sg11
F1851.4956768804807
sa(dp1719
g8
F10.079225208229456
sg10
F30.280258714187507
sg11
F115.90739836635063
sa(dp1720
g8
F21.77057686295134
sg10
F23.477067545997627
sg11
F39.66413413935598
sa(dp1721
g8
F7.237390696231845
sg10
F10.734939484171699
sg11
F26.198358538590334
sa(dp1722
g8
F15.726500036039194
sg10
F16.71746217787327
sg11
F13.517258396446543
sa(dp1723
g8
F8.268883960415543
sg10
F6.878291154698346
sg11
F13.828730271081422
sa(dp1724
g8
F31.438205250119847
sg10
F32.67530259276661
sg11
F22.733775735940903
sa(dp1725
g8
F35.54521802740183
sg10
F20.558607038821346
sg11
F3.0760074348739037
sa(dp1726
g8
F23.582057729820306
sg10
F63.02780334509629
sg11
F234.47608054115636
sa(dp1727
g8
F10.687784037527518
sg10
F13.99961025243953
sg11
F56.53896981835374
sa(dp1728
g8
F40.793811167184735
sg10
F57.835334352029236
sg11
F117.58232050865998
sa(dp1729
g8
F19.76664219329131
sg10
F19.575312972072982
sg11
F8.51795490721252
sa(dp1730
g8
F13.061559212788431
sg10
F8.602089187098501
sg11
F8.382615740051502
sa(dp1731
g8
F44.58742288205504
sg10
F42.24626990800163
sg11
F10.764850452637027
sa(dp1732
g8
F14.752823687248757
sg10
F12.854513496555024
sg11
F2.9555065725416427
sa(dp1733
g8
F13.945898102012935
sg10
F9.310822414015176
sg11
F1.4565579505595252
sa(dp1734
g8
F9.537071007279827
sg10
F16.041445276079145
sg11
F49.14074857911633
sa(dp1735
g8
F36.17320458678316
sg10
F39.48484605896188
sg11
F50.370147573670714
sa(dp1736
g8
F20.97855852453133
sg10
F18.132899365099206
sg11
F6.260818604514789
sa(dp1737
g8
F14.397648870410366
sg10
F12.45589634769248
sg11
F4.391051395725002
sa(dp1738
g8
F12.232859586707526
sg10
F10.626006858026884
sg11
F3.8877306350372587
sa(dp1739
g8
F11.125352388994317
sg10
F9.560042293397862
sg11
F3.795288999932069
sa(dp1740
g8
F10.326599144700976
sg10
F10.05042337002868
sg11
F4.1251264690057186
sa(dp1741
g8
F8.202769162552235
sg10
F7.915290473176779
sg11
F4.773687985201114
sa(dp1742
g8
F23.86144728978585
sg10
F15.407863014179075
sg11
F2.3872651113150245
sa(dp1743
g8
F8.847398998447964
sg10
F16.722875797579125
sg11
F51.591171780880366
sa(dp1744
g8
F5.622823583943775
sg10
F20.637588539209958
sg11
F87.74798762157347
sa(dp1745
g8
F9.189622247986433
sg10
F19.39334793688753
sg11
F83.49077492153455
sa(dp1746
g8
F2.457144440623062
sg10
F21.444297801879163
sg11
F107.46027781336986
sa(dp1747
g8
F3.8988517710776764
sg10
F13.791358466285743
sg11
F60.65094475177416
sa(dp1748
g8
F1.1067850340503678
sg10
F11.91686520174859
sg11
F62.31564381928963
sa(dp1749
g8
F1.450417093312378
sg10
F15.991779336647426
sg11
F83.77137510927459
sa(dp1750
g8
F0.47492748174513877
sg10
F5.754853921204639
sg11
F30.40070260618522
sa(dp1751
g8
F0.11827677462960437
sg10
F3.1698273723856274
sg11
F16.725895177093257
sa(dp1752
g8
F0.14249029827944593
sg10
F1.1417445482591884
sg11
F5.640312220900419
sa(dp1753
g8
F0.4493594946292333
sg10
F1.152805799906227
sg11
F5.618982081958037
sa(dp1754
g8
F1.992868768147377
sg10
F7.000084802297702
sg11
F30.054276667252157
sa(dp1755
g8
F2.813777161370346
sg10
F3.153460584622064
sg11
F11.880321005689336
sa(dp1756
g8
F13.631085850044954
sg10
F18.01163405183717
sg11
F29.547535069579396
sa(dp1757
g8
F31.03981350094515
sg10
F32.40031785049261
sg11
F20.385840962156237
sa(dp1758
g8
F97.94903820188789
sg10
F93.26264615986909
sg11
F15.820497577304012
sa(dp1759
g8
F527.5522710304177
sg10
F154.35886193214975
sg11
F15.409394225641867
sa(dp1760
g8
F1.7139645525855436
sg10
F28.00427200443241
sg11
F147.40935039194943
sa(dp1761
g8
F1.4439194789453809
sg10
F17.75757869928455
sg11
F91.80140088453696
sa(dp1762
g8
F0.8628182729867822
sg10
F5.385119156470692
sg11
F25.996278386575007
sa(dp1763
g8
F0.6441710291305692
sg10
F2.988944769825723
sg11
F14.275453665953771
sa(dp1764
g8
F0.2633954817783383
sg10
F5.464482274022628
sg11
F28.542260971012485
sa(dp1765
g8
F0.5183446138839672
sg10
F2.8129004251759464
sg11
F13.215026492824373
sa(dp1766
g8
F0.8981562878934302
sg10
F2.055032260613069
sg11
F6.850793479971503
sa(dp1767
g8
F4.388559134666075
sg10
F4.869121665802146
sg11
F5.253070829564766
sa(dp1768
g8
F26.377971129576462
sg10
F24.552056391280345
sg11
F4.316839607914751
sa(dp1769
g8
F73.28730928737298
sg10
F81.64869288788401
sg11
F102.90006807289905
sa(dp1770
g8
F14.169529267179875
sg10
F14.784586592015195
sg11
F9.257972756671364
sa(dp1771
g8
F67.2983888462121
sg10
F63.10864924047541
sg11
F10.791510917720558
sa(dp1772
g8
F16.53922219546695
sg10
F14.361654783424576
sg11
F6.176340938971114
sa(dp1773
g8
F9.423372514429795
sg10
F8.925579660964225
sg11
F4.321845118279751
sa(dp1774
g8
F14.684158937763439
sg10
F13.729315583273095
sg11
F2.3345778538612905
sa(dp1775
g8
F14.90903469781239
sg10
F14.155187690995987
sg11
F2.960629777418543
sa(dp1776
g8
F7.946769312540036
sg10
F4.809875112035362
sg11
F0.7305510122888148
sa(dp1777
g8
F6.4920584936846035
sg10
F15.13068188394421
sg11
F50.98049217120662
sa(dp1778
g8
F22.89835602019951
sg10
F24.897242011423796
sg11
F28.19984507359792
sa(dp1779
g8
F13.623911867980496
sg10
F13.23129171888267
sg11
F7.613177065602439
sa(dp1780
g8
F17.596994360950337
sg10
F15.100060879773622
sg11
F3.663560036044627
sa(dp1781
g8
F16.862079240944198
sg10
F13.173640762160037
sg11
F2.145457845750225
sa(dp1782
g8
F13.19743941292759
sg10
F11.164007686514735
sg11
F2.8431561578754936
sa(dp1783
g8
F9.815351849869801
sg10
F8.742071933351845
sg11
F1.4642572478244589
sa(dp1784
g8
F10.997122319862653
sg10
F3.225182944219256
sg11
F0.32271916152419977
sa(dp1785
g8
F12.347955041034202
sg10
F27.01294304094544
sg11
F90.60704207453162
sa(dp1786
g8
F7.580324030482813
sg10
F10.400240562444305
sg11
F29.530963332198066
sa(dp1787
g8
F4.37115625266671
sg10
F11.28361088278876
sg11
F42.13590473413232
sa(dp1788
g8
F5.6747563476272385
sg10
F10.682444503658575
sg11
F30.769820025925426
sa(dp1789
g8
F14.262668737714307
sg10
F15.371281937668163
sg11
F11.976496243788722
sa(dp1790
g8
F74.37745596593177
sg10
F70.0898850009472
sg11
F16.45147655446568
sa(dp1791
g8
F22.134301924671266
sg10
F20.137815642087563
sg11
F3.3870236835892027
sa(dp1792
g8
F15.124161680589696
sg10
F13.840479195200055
sg11
F10.96750780822961
sa(dp1793
g8
F9.139660799156132
sg10
F10.103236519437855
sg11
F10.78577936032138
sa(dp1794
g8
F30.713882980750316
sg10
F29.20317385421508
sg11
F4.952570007146247
sa(dp1795
g8
F11.304828532407267
sg10
F10.677217423585866
sg11
F1.8397178056989723
sa(dp1796
g8
F14.090946917692165
sg10
F9.410047589293654
sg11
F8.336605205157952
sa(dp1797
g8
F40.17421797078047
sg10
F34.51965326469596
sg11
F8.336643026781848
sa(dp1798
g8
F10.638395834972606
sg10
F8.204530143286224
sg11
F1.3321580174265877
sa(dp1799
g8
F9.590637923798248
sg10
F8.69750002328873
sg11
F6.6719176983207475
sa(dp1800
g8
F9.259055044690465
sg10
F10.468989927648828
sg11
F10.442175720614344
sa(dp1801
g8
F64.8139030583552
sg10
F62.05726881867397
sg11
F20.440318300427084
sa(dp1802
g8
F8.64737078322563
sg10
F8.407932734315972
sg11
F3.290701891076134
sa(dp1803
g8
F8.155304087062516
sg10
F7.297373223951741
sg11
F4.350187995596875
sa(dp1804
g8
F9.508476962654193
sg10
F9.255295205659667
sg11
F7.347741744243134
sa(dp1805
g8
F22.657245645990773
sg10
F20.422777774028443
sg11
F3.4287680993106053
sa(dp1806
g8
F9.864059775354137
sg10
F10.486726372160375
sg11
F16.92228623577039
sa(dp1807
g8
F8.514220242133675
sg10
F12.247436568022486
sg11
F28.645721431434406
sa(dp1808
g8
F19.996257204534118
sg10
F20.7616064525152
sg11
F15.85929340091649
sa(dp1809
g8
F7.9072494301562255
sg10
F9.317150031350787
sg11
F12.230923995545535
sa(dp1810
g8
F30.078087290231004
sg10
F25.353063656097948
sg11
F6.533674578850677
sa(dp1811
g8
F13.324480219759895
sg10
F12.237875070555361
sg11
F2.06205021614799
sa(dp1812
g8
F10.379979370452366
sg10
F7.957652831659384
sg11
F1.2902537367638878
sa(dp1813
g8
F8.886478961511997
sg10
F8.31238284697568
sg11
F1.4119687401295493
sa(dp1814
g8
F14.150169940983224
sg10
F13.233558073414388
sg11
F2.2518653404054136
sa(dp1815
g8
F13.945004168838183
sg10
F13.14097959549172
sg11
F3.0849584926639784
sa(dp1816
g8
F7.825135252747112
sg10
F7.122977141763197
sg11
F1.1981478477749132
sa(dp1817
g8
F8.296907306017244
sg10
F7.525341551447872
sg11
F1.2649520900069589
sa(dp1818
g8
F8.256120186184384
sg10
F7.957857262095769
sg11
F1.352917767711858
sa(dp1819
g8
F17.890176480792242
sg10
F17.266067966141414
sg11
F6.293001197573645
sa(dp1820
g8
F7.791680477950697
sg10
F7.375785724593882
sg11
F3.6369512485750164
sa(dp1821
g8
F14.503351989518535
sg10
F13.980371197468829
sg11
F2.3768369348604255
sa(dp1822
g8
F18.233249482369313
sg10
F17.159530398139243
sg11
F4.105273160082841
sa(dp1823
g8
F7.786609896303692
sg10
F7.50767117176429
sg11
F1.2764537631349295
sa(dp1824
g8
F17.89263306263603
sg10
F15.323506123580048
sg11
F3.743083813115249
sa(dp1825
g8
F9.651152795926945
sg10
F7.683865451941083
sg11
F1.2568215427804614
sa(dp1826
g8
F9.56436293909439
sg10
F7.260388507506157
sg11
F1.1744307191624286
sa(dp1827
g8
F9.159463301440322
sg10
F9.005632736957011
sg11
F3.236627284681688
sa(dp1828
g8
F8.013513977232025
sg10
F3.7470438116062836
sg11
F3.6111757290485698
sa(dp1829
g8
F74.26700247823574
sg10
F70.60519232249116
sg11
F11.97366843026107
sa(dp1830
g8
F10.156127698084376
sg10
F9.666505296826235
sg11
F1.6396518617768572
sa(dp1831
g8
F9.295942455233833
sg10
F8.22526204969055
sg11
F6.879985133561562
sa(dp1832
g8
F43.598225706508956
sg10
F42.025534024515906
sg11
F7.144845893310886
sa(dp1833
g8
F18.29295210668285
sg10
F17.301414146573705
sg11
F3.8451651471136388
sa(dp1834
g8
F7.866813850526945
sg10
F5.983474539270523
sg11
F0.9683336632321207
sa(dp1835
g8
F8.770490567586917
sg10
F8.539403658894079
sg11
F6.832852921259529
sa(dp1836
g8
F22.560186983396726
sg10
F20.534391639226484
sg11
F3.4540197653107056
sa(dp1837
g8
F9.75560946426835
sg10
F8.859231235898395
sg11
F1.4895210450664607
sa(dp1838
g8
F8.2630747116333
sg10
F7.804103625227524
sg11
F5.110026245126048
sa(dp1839
g8
F9.870463189761047
sg10
F6.8958561217976015
sg11
F8.646002164896982
sa(dp1840
g8
F39.491941721402064
sg10
F38.071254365343236
sg11
F13.661087521060558
sa(dp1841
g8
F8.445237286135955
sg10
F7.997105493814663
sg11
F3.824019986792145
sa(dp1842
g8
F15.182895555509226
sg10
F14.017006417111492
sg11
F2.364149320769904
sa(dp1843
g8
F128.0023681426088
sg10
F117.0058237537639
sg11
F19.697263790303662
sa(dp1844
g8
F8.316637403573685
sg10
F6.994619125595529
sg11
F1.8191569625909167
sa(dp1845
g8
F9.501403016656488
sg10
F8.897690747986923
sg11
F1.511374441315386
sa(dp1846
g8
F14.188847617327685
sg10
F12.797984419538361
sg11
F2.148922373527967
sa(dp1847
g8
F8.172207730025361
sg10
F8.601647846600459
sg11
F8.579571118369365
sa(dp1848
g8
F14.354617081349947
sg10
F14.186585759331962
sg11
F6.688098638754128
sa(dp1849
g8
F7.944124410827018
sg10
F7.059090918913729
sg11
F5.855976133905994
sa(dp1850
g8
F44.27932668020096
sg10
F41.38819568103736
sg11
F7.156640933097733
sa(dp1851
g8
F15.434714098629685
sg10
F15.031260226853679
sg11
F12.09781852002105
sa(dp1852
g8
F22.40669631764076
sg10
F20.54321329208672
sg11
F3.460315143997679
sa(dp1853
g8
F8.652364962406784
sg10
F6.871079900030048
sg11
F1.123225758538034
sa(dp1854
g8
F9.292223056872032
sg10
F7.1615544191583
sg11
F1.1626286869924647
sa(dp1855
g8
F9.35990135787895
sg10
F8.518016695815005
sg11
F1.432740740451202
sa(dp1856
g8
F8.402390654310999
sg10
F7.65233314148871
sg11
F1.2873164919680702
sa(dp1857
g8
F8.288428477236401
sg10
F7.450978201000627
sg11
F1.2502847358616134
sa(dp1858
g8
F8.169095221699063
sg10
F9.037132590831503
sg11
F9.68734099539082
sa(dp1859
g8
F31.078059881169054
sg10
F29.698833578611413
sg11
F5.041262554593761
sa(dp1860
g8
F10.09842964592249
sg10
F6.587977495724233
sg11
F6.078539587251335
sa(dp1861
g8
F38.070966274544375
sg10
F35.84979870715629
sg11
F8.505547625572195
sa(dp1862
g8
F8.112880573078286
sg10
F7.628303291654528
sg11
F1.2910324276639562
sa(dp1863
g8
F8.930362232474339
sg10
F3.634890216199716
sg11
F0.4658462447009706
sa(dp1864
g8
F21.43980493995012
sg10
F19.513970417117033
sg11
F3.2823573390056477
sa(dp1865
g8
F8.800904653279368
sg10
F7.996835603742099
sg11
F1.3446736236879606
sa(dp1866
g8
F8.242586501653658
sg10
F7.70982374676229
sg11
F1.3096033498894433
sa(dp1867
g8
F13.984069679398324
sg10
F13.092112309326307
sg11
F2.223835303011878
sa(dp1868
g8
F13.96733451511678
sg10
F12.704703897780647
sg11
F2.13674163667173
sa(dp1869
g8
F8.258418403873266
sg10
F7.586185350242436
sg11
F1.2782922760599054
sa(dp1870
g8
F8.380588769898583
sg10
F6.403554114726689
sg11
F1.0374531090665848
sa(dp1871
g8
F8.866780503576377
sg10
F8.435863997966125
sg11
F1.4308008091596813
sa(dp1872
g8
F9.403995066380755
sg10
F8.544333230886824
sg11
F1.4367197371454503
sa(dp1873
g8
F8.228730750087058
sg10
F7.704384553584914
sg11
F1.3086735564960026
sa(dp1874
g8
F14.000998390435269
sg10
F12.708061311526833
sg11
F2.1364225412067244
sa(dp1875
g8
F8.2363730621097
sg10
F7.845434398217457
sg11
F1.3309479808401692
sa(dp1876
g8
F9.334670021230162
sg10
F7.835991052114272
sg11
F2.046895035541671
sa(dp1877
g8
F9.392412451302715
sg10
F8.929453358449232
sg11
F1.5143167831211959
sa(dp1878
g8
F9.384771963007909
sg10
F8.9235749935228
sg11
F1.5133628899997615
sa(dp1879
g8
F9.289074648831038
sg10
F8.748721685636568
sg11
F2.0747249137252215
sa(dp1880
g8
F7.8059389427699575
sg10
F7.300238972883493
sg11
F1.2400018213166828
sa(dp1881
g8
F13.98175032116628
sg10
F13.154651011245196
sg11
F2.226576384680288
sa(dp1882
g8
F8.600566888259001
sg10
F3.4217228913337645
sg11
F0.43280885942482455
sa(dp1883
g8
F20.58937061937081
sg10
F19.84691538361447
sg11
F3.374221875671946
sa(dp1884
g8
F18.31767299445727
sg10
F17.244351666118995
sg11
F4.107142350162947
sa(dp1885
g8
F7.790834229647973
sg10
F7.411543691833947
sg11
F1.257046004973931
sa(dp1886
g8
F9.313874464220657
sg10
F8.510913738980047
sg11
F1.4326730061398882
sa(dp1887
g8
F8.289135321931669
sg10
F7.0145331993330275
sg11
F2.0777506131228565
sa(dp1888
g8
F9.489405301913823
sg10
F8.942619787318826
sg11
F2.0981804702289253
sa(dp1889
g8
F7.937493000801086
sg10
F7.212710536828959
sg11
F1.2128355265099735
sa(dp1890
g8
F8.373926005916239
sg10
F7.825256468602717
sg11
F1.3291627936919457
sa(dp1891
g8
F13.967919051734697
sg10
F13.464030046435234
sg11
F2.289045925587894
sa(dp1892
g8
F17.870414510467604
sg10
F16.91688521491861
sg11
F8.326476401033178
sa(dp1893
g8
F14.465136813394075
sg10
F13.908085815615106
sg11
F2.3634632138054688
sa(dp1894
g8
F17.912681748454197
sg10
F32.63702251082775
sg11
F90.78505163114646
sa(dp1895
g8
F31.05262428026703
sg10
F30.23205913190873
sg11
F24.138251837658068
sa(dp1896
g8
F22.51154196585425
sg10
F20.435349809611694
sg11
F3.4355862051614956
sa(dp1897
g8
F9.039742039739872
sg10
F8.592009176988403
sg11
F1.4570238270056497
sa(dp1898
g8
F9.307916976133713
sg10
F8.986386498579723
sg11
F1.5282289387515975
sa(dp1899
g8
F17.890751552848062
sg10
F7.139870870617405
sg11
F0.9047471484418063
sa(dp1900
g8
F19.800274035482875
sg10
F18.938065621569717
sg11
F7.709644652884602
sa(dp1901
g8
F25.098136849289915
sg10
F10.226468098484698
sg11
F1.3114081288261108
sa(dp1902
g8
F33.64701386582587
sg10
F30.5428725897321
sg11
F5.134829767178858
sa(dp1903
g8
F8.772265493542118
sg10
F8.342097986831106
sg11
F1.414778084007527
sa(dp1904
g8
F9.29838166950757
sg10
F8.697293265273226
sg11
F1.477305890179592
sa(dp1905
g8
F13.933488482170633
sg10
F13.048417657081048
sg11
F2.2066888998817915
sa(dp1906
g8
F8.553051278213513
sg10
F4.003071503769592
sg11
F3.849673639330456
sa(dp1907
g8
F75.14695386477248
sg10
F71.186047667229
sg11
F12.064248065955375
sa(dp1908
g8
F9.91000880227134
sg10
F11.503921703655843
sg11
F15.822403845120434
sa(dp1909
g8
F14.53762069783851
sg10
F12.86314096400261
sg11
F10.760412247157213
sa(dp1910
g8
F44.072310117400654
sg10
F42.488050288184006
sg11
F7.223648471822321
sa(dp1911
g8
F19.447598030647157
sg10
F17.518660914473728
sg11
F2.9408376069944144
sa(dp1912
g8
F8.130718811164027
sg10
F8.725841329089716
sg11
F7.782607867763367
sa(dp1913
g8
F31.55511611781509
sg10
F24.193769150211963
sg11
F3.9228743973453346
sa(dp1914
g8
F9.648298595471262
sg10
F9.020153826190864
sg11
F1.5321339531152405
sa(dp1915
g8
F14.140191396742207
sg10
F13.445400538418808
sg11
F2.280229452140512
sa(dp1916
g8
F9.298322416127128
sg10
F8.753320557380688
sg11
F2.086858717882475
sa(dp1917
g8
F7.798943063994343
sg10
F7.431743442789778
sg11
F1.2627255946142446
sa(dp1918
g8
F14.298106227030496
sg10
F5.718076380489351
sg11
F0.725464761631623
sa(dp1919
g8
F20.333055187158745
sg10
F19.34533799250238
sg11
F3.2811627281790776
sa(dp1920
g8
F9.625757601467079
sg10
F8.732858782706883
sg11
F1.4679993600408092
sa(dp1921
g8
F8.207603734115255
sg10
F7.877632209740063
sg11
F1.3382551005515
sa(dp1922
g8
F9.41778488766123
sg10
F3.781456517125854
sg11
F0.48087568527652463
sa(dp1923
g8
F20.21881671207953
sg10
F19.043722215045797
sg11
F4.520504895408368
sa(dp1924
g8
F8.140282447775299
sg10
F7.610709700012478
sg11
F1.297499178425777
sa(dp1925
g8
F14.613959492527334
sg10
F13.924838341998056
sg11
F4.210673778889742
sa(dp1926
g8
F7.802617413856482
sg10
F7.49933216888548
sg11
F2.456370022626657
sa(dp1927
g8
F7.8569896077981
sg10
F6.82575733680167
sg11
F2.949274888092531
sa(dp1928
g8
F9.461585197511685
sg10
F8.957505385536956
sg11
F4.374125408485636
sa(dp1929
g8
F14.684868950907711
sg10
F13.96343041064792
sg11
F2.368086597552629
sa(dp1930
g8
F9.978677534340749
sg10
F9.388998110227359
sg11
F1.5949527117073523
sa(dp1931
g8
F14.033787246954372
sg10
F10.724647533212908
sg11
F1.7375811164527757
sa(dp1932
g8
F8.800661118038189
sg10
F8.366926788793055
sg11
F1.4189215069220715
sa(dp1933
g8
F9.399701664072762
sg10
F8.934054490337635
sg11
F1.51502484987244
sa(dp1934
g8
F9.283815725549458
sg10
F8.968299865461855
sg11
F1.5253113806089689
sa(dp1935
g8
F17.903771623299658
sg10
F3.580303532547678
sg11
F0.19031076127548058
sa(dp1936
g8
F1.8690886144687426
sg10
F25.60036337073856
sg11
F134.82077213647034
sa(dp1937
g8
F0.2937549314051513
sg10
F9.85315132550574
sg11
F52.340708270701526
sa(dp1938
g8
F0.34183705605177467
sg10
F4.002517006012069
sg11
F21.07730449313849
sa(dp1939
g8
F0.18273543885127697
sg10
F3.3467531203369116
sg11
F17.727767869584717
sa(dp1940
g8
F0.06053300499903913
sg10
F1.2069684031559489
sg11
F6.293075710834984
sa(dp1941
g8
F0.22010161350320698
sg10
F1.1410395998265468
sg11
F5.282763809575152
sa(dp1942
g8
F0.8232303489253264
sg10
F1.4945068022741463
sg11
F5.542437101819426
sa(dp1943
g8
F0.9025935006148649
sg10
F3.6239962778179033
sg11
F18.492623409662905
sa(dp1944
g8
F0.252344558999388
sg10
F4.074308768441853
sg11
F21.427396109335895
sa(dp1945
g8
F0.10433288858356232
sg10
F1.2066862095217927
sg11
F6.27112655686344
sa(dp1946
g8
F0.0912310299954578
sg10
F1.5152341237005582
sg11
F7.980781761478934
sa(dp1947
g8
F0.0910947491247148
sg10
F1.1440163025961638
sg11
F5.988847090970163
sa(dp1948
g8
F0.06451571352900883
sg10
F1.5090408322170232
sg11
F7.88892269992229
sa(dp1949
g8
F0.432718277702372
sg10
F4.577440805238562
sg11
F23.923783431764427
sa(dp1950
g8
F0.22128409323218656
sg10
F2.4508429687174913
sg11
F12.578006221087357
sa(dp1951
g8
F0.22767367400825064
sg10
F1.2417223467870782
sg11
F5.672124340545986
sa(dp1952
g8
F1.2168895273845708
sg10
F2.040869453320433
sg11
F5.117981737657149
sa(dp1953
g8
F7.741914380216104
sg10
F5.252306917807429
sg11
F4.854541995739965
sa(dp1954
g8
F62.8045332701195
sg10
F52.81876342671388
sg11
F13.776519015942277
sa(dp1955
g8
F36.95391550874172
sg10
F34.652886189746326
sg11
F5.925916552040675
sa(dp1956
g8
F36.865928025375545
sg10
F32.02700262609335
sg11
F13.836971973239525
sa(dp1957
g8
F9.458078662749575
sg10
F8.95420091791617
sg11
F4.371824669756092
sa(dp1958
g8
F14.686601035688009
sg10
F13.961996129739065
sg11
F2.3677478095529323
sa(dp1959
g8
F9.981859292868576
sg10
F9.520056118741707
sg11
F1.615412099992467
sa(dp1960
g8
F9.32382861052806
sg10
F7.1464957106663505
sg11
F1.1586759910735613
sa(dp1961
g8
F8.790445000435684
sg10
F8.231277150658086
sg11
F1.3993280720434662
sa(dp1962
g8
F14.171204914735513
sg10
F12.824756503934424
sg11
F2.5554898114595437
sa(dp1963
g8
F10.495570142482903
sg10
F4.198964880099669
sg11
F0.5328492242006744
sa(dp1964
g8
F22.402142617747682
sg10
F21.293563988690604
sg11
F3.6109706336201604
sa(dp1965
g8
F9.608205570206039
sg10
F9.250430534567624
sg11
F1.5723422599958314
sa(dp1966
g8
F17.82336212613894
sg10
F24.302977184223526
sg11
F42.49573697294112
sa(dp1967
g8
F66.22088824321894
sg10
F58.66651387539603
sg11
F48.04669312317921
sa(dp1968
g8
F43.94507560242382
sg10
F41.23216145899806
sg11
F6.975467588451459
sa(dp1969
g8
F118.99936003213773
sg10
F69.60324966026378
sg11
F10.453721877483414
sa(dp1970
g8
F6.166403331196018
sg10
F15.943268186076557
sg11
F57.002941928913216
sa(dp1971
g8
F21.723256659471673
sg10
F24.5420076883515
sg11
F31.732489273443598
sa(dp1972
g8
F12.925691012438964
sg10
F12.526971418693917
sg11
F8.752308392375918
sa(dp1973
g8
F26.159591875238675
sg10
F20.159844353790312
sg11
F3.2727550295916816
sa(dp1974
g8
F23.681702906666104
sg10
F21.5598085085956
sg11
F3.6266508900551937
sa(dp1975
g8
F8.380283078308185
sg10
F7.581989370783952
sg11
F3.991197759731834
sa(dp1976
g8
F49.06419975697312
sg10
F26.795177132560188
sg11
F3.9284553776879725
sa(dp1977
g8
F38.82549873934947
sg10
F16.486120490566957
sg11
F2.162342211453747
sa(dp1978
g8
F36.33964214019001
sg10
F29.738334292116434
sg11
F4.89404518869186
sa(dp1979
g8
F10.573078416547412
sg10
F6.738990064904991
sg11
F4.608820502898875
sa(dp1980
g8
F42.03564446709094
sg10
F36.430980842723066
sg11
F6.068646844679833
sa(dp1981
g8
F11.698926000575792
sg10
F4.6723849737490815
sg11
F0.5923361973870399
sa(dp1982
g8
F22.14357470209821
sg10
F21.138731648451696
sg11
F4.030797260665679
sa(dp1983
g8
F8.279780156447929
sg10
F3.2142768002789923
sg11
F0.4006535355942806
sa(dp1984
g8
F20.07463596217407
sg10
F20.586603937197918
sg11
F10.902773367922153
sa(dp1985
g8
F65.40035165708888
sg10
F49.977711241607096
sg11
F8.09721366415243
sa(dp1986
g8
F11.839298689837001
sg10
F11.25736955368049
sg11
F1.909151336954938
sa(dp1987
g8
F9.397589265279263
sg10
F8.856216810819506
sg11
F2.077488011711729
sa(dp1988
g8
F7.8147603978399225
sg10
F7.0967350199707235
sg11
F1.193189561639278
sa(dp1989
g8
F8.260876213210183
sg10
F7.801637871311056
sg11
F1.7730488159632756
sa(dp1990
g8
F7.874765885953718
sg10
F6.461312785092453
sg11
F1.063953985484641
sa(dp1991
g8
F9.686894195999749
sg10
F6.063474932586018
sg11
F0.9307158606967285
sa(dp1992
g8
F7.368860986239242
sg10
F15.441296056787511
sg11
F51.624492022854206
sa(dp1993
g8
F17.07995355488038
sg10
F20.548451624835035
sg11
F29.707515424905843
sa(dp1994
g8
F6.677512500889116
sg10
F9.753256639007146
sg11
F26.071949851459195
sa(dp1995
g8
F34.278638215466074
sg10
F35.144648816773476
sg11
F35.22537395167631
sa(dp1996
g8
F22.334021297449123
sg10
F19.0675846524499
sg11
F4.707623202929489
sa(dp1997
g8
F18.927683581837364
sg10
F15.518087231901072
sg11
F2.554850615685326
sa(dp1998
g8
F15.17269274712095
sg10
F9.548961981941158
sg11
F6.780573715127185
sa(dp1999
g8
F41.90174485692975
sg10
F38.29477287379857
sg11
F6.4464733366396105
sa(dp2000
g8
F9.40407563263393
sg10
F7.937096183817952
sg11
F2.0366524876772663
sa(dp2001
g8
F9.510586814932374
sg10
F8.63838008049901
sg11
F1.4524427121348036
sa(dp2002
g8
F8.38974522719022
sg10
F7.8982198518540025
sg11
F1.8809024343527836
sa(dp2003
g8
F7.821294933467432
sg10
F7.4376395980662995
sg11
F1.2613827213227815
sa(dp2004
g8
F9.348280428531558
sg10
F8.75278996096345
sg11
F1.4867571694585553
sa(dp2005
g8
F13.950519229201351
sg10
F12.653167646314802
sg11
F2.126899224087961
sa(dp2006
g8
F8.230287429579661
sg10
F7.933285020195324
sg11
F1.3487502447764093
sa(dp2007
g8
F17.892283405359414
sg10
F17.013120852993094
sg11
F2.885285212683034
sa(dp2008
g8
F9.282419014457572
sg10
F8.738644966212275
sg11
F2.0808722232023653
sa(dp2009
g8
F7.800034747016405
sg10
F7.415583228821448
sg11
F1.2575850609584642
sa(dp2010
g8
F9.318300934569312
sg10
F8.859049773621019
sg11
F1.5023789727361159
sa(dp2011
g8
F9.288428411283903
sg10
F8.828617947923625
sg11
F1.4971551273588923
sa(dp2012
g8
F9.28605750356648
sg10
F8.950618135891109
sg11
F1.521698309467563
sa(dp2013
g8
F17.855891208739223
sg10
F17.211365424845855
sg11
F2.9261260994972917
sa(dp2014
g8
F17.84532013372343
sg10
F17.028942484583162
sg11
F5.275347524812695
sa(dp2015
g8
F7.787170553051486
sg10
F7.479006259948507
sg11
F2.591120296186911
sa(dp2016
g8
F7.797697488789711
sg10
F7.6353318836313235
sg11
F3.2944541298221686
sa(dp2017
g8
F7.829900996356409
sg10
F7.194430737954696
sg11
F4.971047479894092
sa(dp2018
g8
F9.45533136040027
sg10
F8.779386243935276
sg11
F9.07165313457745
sa(dp2019
g8
F44.3118472939374
sg10
F41.76027992572566
sg11
F9.792234233404434
sa(dp2020
g8
F8.906222807228954
sg10
F8.077986673113621
sg11
F1.3578472458493265
sa(dp2021
g8
F8.828343173979798
sg10
F8.509537440625815
sg11
F1.446713045889086
sa(dp2022
g8
F17.89117723106699
sg10
F17.17299204136754
sg11
F2.917387982961401
sa(dp2023
g8
F9.390338951206825
sg10
F3.7360556047964235
sg11
F0.4725774772766551
sa(dp2024
g8
F19.90204611669362
sg10
F19.18278390186118
sg11
F3.2612625867756075
sa(dp2025
g8
F18.323032725378933
sg10
F17.77466109230025
sg11
F10.7215618245078
sa(dp2026
g8
F14.491185878703435
sg10
F13.642198205625679
sg11
F3.2487901671179977
sa(dp2027
g8
F7.855211184063691
sg10
F7.469905481580782
sg11
F1.266855250351171
sa(dp2028
g8
F9.378588569966448
sg10
F8.780195753138155
sg11
F1.4914096242118877
sa(dp2029
g8
F13.948637683975049
sg10
F12.696541749324144
sg11
F2.1356555873478156
sa(dp2030
g8
F8.265716556996527
sg10
F7.501874494365706
sg11
F1.2611642511780456
sa(dp2031
g8
F8.262702470179871
sg10
F7.879871853807078
sg11
F1.3370797924993958
sa(dp2032
g8
F9.346636453963177
sg10
F7.202623005918476
sg11
F1.169262677790361
sa(dp2033
g8
F8.849748993278551
sg10
F8.058834500870732
sg11
F1.3556704603684584
sa(dp2034
g8
F8.43786186597749
sg10
F7.600556626295883
sg11
F1.2758841894235167
sa(dp2035
g8
F8.17897402401787
sg10
F8.784259500186248
sg11
F10.543885772010672
sa(dp2036
g8
F22.480291046378323
sg10
F19.0929793403715
sg11
F6.137237133079202
sa(dp2037
g8
F9.991625072495111
sg10
F9.503526427783386
sg11
F2.6485238724086835
sa(dp2038
g8
F16.003115934910184
sg10
F6.523561644348686
sg11
F0.8367728055940142
sa(dp2039
g8
F24.852070524711174
sg10
F22.53372992527078
sg11
F3.787511563592531
sa(dp2040
g8
F8.776053273168314
sg10
F8.503765057249048
sg11
F5.906844754898957
sa(dp2041
g8
F22.94668437256815
sg10
F17.559126379489882
sg11
F2.8457827522543275
sa(dp2042
g8
F9.293251187168696
sg10
F8.775866744923178
sg11
F1.9970375013890151
sa(dp2043
g8
F7.947492064614112
sg10
F6.548906604031178
sg11
F1.0793810193970188
sa(dp2044
g8
F9.836415535833329
sg10
F5.97623563415899
sg11
F0.9088068676449664
sa(dp2045
g8
F7.104978355975524
sg10
F16.36536419542764
sg11
F71.79570260298438
sa(dp2046
g8
F20.282013216775397
sg10
F34.70722437835704
sg11
F126.3296420321122
sa(dp2047
g8
F3.13679366025361
sg10
F13.352068063581392
sg11
F61.10366334472819
sa(dp2048
g8
F11.171459959665505
sg10
F19.178930158757797
sg11
F70.47718233747625
sa(dp2049
g8
F1.9241443329280996
sg10
F8.603484599691281
sg11
F38.938770074580205
sa(dp2050
g8
F2.064561483712057
sg10
F6.598819884981083
sg11
F26.99535605514584
sa(dp2051
g8
F2.277182785055648
sg10
F5.0864881553234325
sg11
F17.450503664375464
sa(dp2052
g8
F2.99705056535745
sg10
F4.778984406397252
sg11
F12.483814617385018
sa(dp2053
g8
F7.237182055111091
sg10
F6.905437950360514
sg11
F7.078240316148205
sa(dp2054
g8
F9.149655181920345
sg10
F10.752126824699518
sg11
F15.634546089319542
sa(dp2055
g8
F9.900134734374218
sg10
F9.650985645713334
sg11
F7.978097838773048
sa(dp2056
g8
F25.983114842944538
sg10
F24.62939554353563
sg11
F4.174556284551291
sa(dp2057
g8
F36.83371059667854
sg10
F41.37526170498006
sg11
F47.805210114038104
sa(dp2058
g8
F14.92068478165088
sg10
F9.635392011105093
sg11
F8.514104074301752
sa(dp2059
g8
F39.236619739384835
sg10
F37.10624325311556
sg11
F8.259073926830458
sa(dp2060
g8
F8.47005899732162
sg10
F6.475948193323282
sg11
F1.0493373546479827
sa(dp2061
g8
F9.2932099580371
sg10
F8.813620259272023
sg11
F3.6046551183437288
sa(dp2062
g8
F15.007967628968926
sg10
F11.08181620303853
sg11
F1.7805052975111082
sa(dp2063
g8
F9.241691976431659
sg10
F10.363840331754513
sg11
F13.131285375569497
sa(dp2064
g8
F13.987669185184085
sg10
F13.749010848876143
sg11
F9.197637581880596
sa(dp2065
g8
F14.940388027345222
sg10
F14.17074879718564
sg11
F3.9095786526213088
sa(dp2066
g8
F9.002656074610572
sg10
F8.522917873208836
sg11
F2.2593488201224865
sa(dp2067
g8
F8.353688260648221
sg10
F7.861804026623226
sg11
F1.8807073385020632
sa(dp2068
g8
F8.064148804631463
sg10
F7.773253523232593
sg11
F1.3215464574398057
sa(dp2069
g8
F18.20179476122478
sg10
F17.217023140315558
sg11
F2.956003756804014
sa(dp2070
g8
F14.106581322073689
sg10
F8.764620186674238
sg11
F6.459517383258142
sa(dp2071
g8
F37.96294934082682
sg10
F36.59355065718051
sg11
F6.221343897603459
sa(dp2072
g8
F18.50361666840883
sg10
F17.498008835046065
sg11
F3.8979093764052744
sa(dp2073
g8
F7.864017274857897
sg10
F6.02982577238988
sg11
F0.9777142216500931
sa(dp2074
g8
F8.860311578490906
sg10
F8.280864142966648
sg11
F1.4065533176306626
sa(dp2075
g8
F14.140500001568649
sg10
F13.57584218162974
sg11
F2.3063869433280204
sa(dp2076
g8
F9.406239537269583
sg10
F3.6244692350421612
sg11
F0.44972431228487697
sa(dp2077
g8
F18.76006876292183
sg10
F19.60474303322338
sg11
F12.459865233406113
sa(dp2078
g8
F64.24604453297678
sg10
F61.96214402849432
sg11
F10.535337218537117
sa(dp2079
g8
F23.851450997123376
sg10
F18.09057260968294
sg11
F2.9257138707496497
sa(dp2080
g8
F8.635250923619868
sg10
F8.525824869527103
sg11
F5.582141598740394
sa(dp2081
g8
F14.664878722049883
sg10
F12.590019432937687
sg11
F3.708466268787745
sa(dp2082
g8
F10.37472493186932
sg10
F8.757783143256471
sg11
F2.246003617742435
sa(dp2083
g8
F10.155459979984961
sg10
F9.210978754988849
sg11
F1.5482921340088405
sa(dp2084
g8
F8.670704373266535
sg10
F8.358667438733788
sg11
F1.421096441439843
sa(dp2085
g8
F17.88946228912188
sg10
F16.375696845816673
sg11
F13.003371265042459
sa(dp2086
g8
F9.090464643093059
sg10
F10.053504191860654
sg11
F10.759884462071641
sa(dp2087
g8
F30.709261154811134
sg10
F29.2896784415466
sg11
F4.970059125329819
sa(dp2088
g8
F11.13448122691367
sg10
F8.508839883638817
sg11
F1.3785755121191126
sa(dp2089
g8
F8.75382121282227
sg10
F8.323152700802613
sg11
F1.4115215037151252
sa(dp2090
g8
F9.402174289011063
sg10
F8.886660782964013
sg11
F1.9951149725112693
sa(dp2091
g8
F7.862095956006444
sg10
F6.191832614488507
sg11
F1.0102695942991287
sa(dp2092
g8
F9.172187814891618
sg10
F7.4177475138740006
sg11
F1.2175605551257354
sa(dp2093
g8
F9.865767181112918
sg10
F6.798727526827332
sg11
F6.978689662025693
sa(dp2094
g8
F42.567877251880766
sg10
F36.59454224989378
sg11
F10.858642455790767
sa(dp2095
g8
F11.04447673800735
sg10
F9.255800773673567
sg11
F2.4310239234946427
sa(dp2096
g8
F10.319193191018396
sg10
F9.946729040031771
sg11
F1.691056564895143
sa(dp2097
g8
F18.977383804904214
sg10
F18.09789610173882
sg11
F3.070897332000946
sa(dp2098
g8
F9.315793912951902
sg10
F7.185424229109613
sg11
F1.1667219946705818
sa(dp2099
g8
F8.862539828560026
sg10
F8.031865802447376
sg11
F1.3498833706389164
sa(dp2100
g8
F8.397329858458933
sg10
F8.202010203849364
sg11
F3.5353058065055665
sa(dp2101
g8
F7.789049550102081
sg10
F7.621766058976875
sg11
F4.94057388818488
sa(dp2102
g8
F14.519602597113861
sg10
F13.796496867284237
sg11
F3.6265008809960793
sa(dp2103
g8
F8.048131066433637
sg10
F6.755873201637427
sg11
F1.7648630508723506
sa(dp2104
g8
F9.583223234099542
sg10
F9.112338953877023
sg11
F1.5453776844257772
sa(dp2105
g8
F9.487605061547065
sg10
F8.931756851277555
sg11
F2.1270423238721055
sa(dp2106
g8
F7.798567090422781
sg10
F7.416139298278434
sg11
F1.257739882680857
sa(dp2107
g8
F9.319458615918881
sg10
F8.717573590400741
sg11
F1.480821505414152
sa(dp2108
g8
F13.934362685955804
sg10
F13.023400007130018
sg11
F2.2239861087768293
sa(dp2109
g8
F13.936727442097018
sg10
F13.44124533010813
sg11
F4.8533306198313255
sa(dp2110
g8
F7.802225687421268
sg10
F7.389555997382021
sg11
F3.5762797856018196
sa(dp2111
g8
F14.568430522775545
sg10
F13.624642776885729
sg11
F2.314289511340515
sa(dp2112
g8
F14.31871719945774
sg10
F13.47149773518292
sg11
F2.288462902915933
sa(dp2113
g8
F14.051365929308211
sg10
F10.77043565112534
sg11
F1.7462479390398247
sa(dp2114
g8
F8.833272677984993
sg10
F8.269828209867715
sg11
F1.404718702917065
sa(dp2115
g8
F14.166117920147753
sg10
F12.88674834900024
sg11
F2.1673986956584765
sa(dp2116
g8
F8.255371431013268
sg10
F7.570921178654665
sg11
F1.275320110669225
sa(dp2117
g8
F8.364724255060635
sg10
F6.606083212797023
sg11
F1.078548405479721
sa(dp2118
g8
F9.237940154168582
sg10
F7.35251646054355
sg11
F1.2025364060584574
sa(dp2119
g8
F9.690770087205154
sg10
F7.370457740172002
sg11
F1.1927835322356888
sa(dp2120
g8
F9.152404055331388
sg10
F8.913142884968492
sg11
F7.1731863653648205
sa(dp2121
g8
F22.518992347157976
sg10
F20.64437255727029
sg11
F3.4772966825952287
sa(dp2122
g8
F9.677679149888915
sg10
F7.6984758395033115
sg11
F1.2589702575115658
sa(dp2123
g8
F9.311265009613368
sg10
F7.103899948476175
sg11
F1.1505016858647292
sa(dp2124
g8
F9.25664430770104
sg10
F8.874690030043876
sg11
F2.782178497801562
sa(dp2125
g8
F7.89765631625986
sg10
F6.809753901922999
sg11
F2.6940851700538753
sa(dp2126
g8
F9.530441149630143
sg10
F9.036796645222589
sg11
F3.7774299384464856
sa(dp2127
g8
F15.034221168643036
sg10
F11.457752714380208
sg11
F1.8551444092794778
sa(dp2128
g8
F9.610377740593139
sg10
F9.264223573587264
sg11
F1.5750451088161908
sa(dp2129
g8
F18.00688804171605
sg10
F16.68508004960663
sg11
F2.816100553728988
sa(dp2130
g8
F8.42060703222742
sg10
F5.304674474532069
sg11
F3.7560546316961645
sa(dp2131
g8
F39.6307291758453
sg10
F36.07287212788673
sg11
F6.0677200050558255
sa(dp2132
g8
F8.901443614387395
sg10
F8.080469473535041
sg11
F1.3584862147265044
sa(dp2133
g8
F8.242470902681672
sg10
F7.834432181971944
sg11
F1.328561105593032
sa(dp2134
g8
F9.311314143062855
sg10
F8.975439363737204
sg11
F1.525932766306275
sa(dp2135
g8
F17.85645906324962
sg10
F16.88413760927759
sg11
F3.7675964969993445
sa(dp2136
g8
F7.862827223490031
sg10
F6.0646337702003645
sg11
F0.984731827290217
sa(dp2137
g8
F8.927522956594643
sg10
F8.09141327839998
sg11
F1.3599125899532174
sa(dp2138
g8
F8.394350424133455
sg10
F8.188296290898917
sg11
F4.837998371794805
sa(dp2139
g8
F14.66197179497728
sg10
F12.371778154376694
sg11
F3.1771528550822628
sa(dp2140
g8
F9.769440132353717
sg10
F8.892048026107888
sg11
F1.4956963194035535
sa(dp2141
g8
F8.529416508749355
sg10
F7.747883215177468
sg11
F1.302738505530589
sa(dp2142
g8
F8.264976296587811
sg10
F7.769078032065945
sg11
F1.3197485144294865
sa(dp2143
g8
F14.063667629565538
sg10
F11.140541702579053
sg11
F1.8201288319661053
sa(dp2144
g8
F9.207250254534245
sg10
F7.200560396475076
sg11
F1.1729587863858182
sa(dp2145
g8
F9.520349407478456
sg10
F8.008356108868893
sg11
F24.308361608846234
sa(dp2146
g8
F68.66207143590171
sg10
F72.74959182640471
sg11
F75.13397081717099
sa(dp2147
g8
F13.737704232839429
sg10
F13.815008317613813
sg11
F6.730158425393345
sa(dp2148
g8
F39.382037256320295
sg10
F15.57874808522807
sg11
F1.9639126627316068
sa(dp2149
g8
F71.12793336776419
sg10
F69.55831900231193
sg11
F82.31776046600467
sa(dp2150
g8
F8.952787539277976
sg10
F11.303432574573309
sg11
F18.870035480258068
sa(dp2151
g8
F6.829251275627055
sg10
F11.6875621653701
sg11
F33.30603961562893
sa(dp2152
g8
F18.51256017259348
sg10
F20.462497389516106
sg11
F21.834326912686432
sa(dp2153
g8
F30.077524174508188
sg10
F28.58115004430759
sg11
F4.8465562780056475
sa(dp2154
g8
F18.051450180237257
sg10
F17.67231991577147
sg11
F20.858140003536178
sa(dp2155
g8
F44.81759654857123
sg10
F38.02764543449792
sg11
F11.904534121403593
sa(dp2156
g8
F9.854762880611478
sg10
F9.32829345544154
sg11
F2.46734973175031
sa(dp2157
g8
F8.058887740396987
sg10
F7.589872063633603
sg11
F1.803046707642428
sa(dp2158
g8
F7.9778349783232985
sg10
F7.482631324356659
sg11
F1.275185326509879
sa(dp2159
g8
F14.179705029523682
sg10
F12.186153531418524
sg11
F3.6098927377578742
sa(dp2160
g8
F9.620646306585602
sg10
F8.076051471027984
sg11
F2.1096050186434185
sa(dp2161
g8
F9.681047291207818
sg10
F9.20388425836171
sg11
F1.5608573377311792
sa(dp2162
g8
F9.519795545945584
sg10
F9.05057448478731
sg11
F1.5348578409837956
sa(dp2163
g8
F9.287475688990051
sg10
F8.830055322080366
sg11
F1.4974716022442918
sa(dp2164
g8
F9.28906071289865
sg10
F8.810161122938709
sg11
F2.428426757820987
sa(dp2165
g8
F7.8000254443927135
sg10
F7.383320082541807
sg11
F1.9528300492684745
sa(dp2166
g8
F7.826569672008185
sg10
F7.370866623316118
sg11
F1.7508891607127033
sa(dp2167
g8
F7.848545211068791
sg10
F7.366194768307273
sg11
F1.254213210282115
sa(dp2168
g8
F14.089287730030248
sg10
F11.827357724469916
sg11
F3.089421384948572
sa(dp2169
g8
F9.424841403059709
sg10
F8.959645514135389
sg11
F1.519417183279079
sa(dp2170
g8
F9.398875824920113
sg10
F8.975923598303048
sg11
F1.6995305026823422
sa(dp2171
g8
F8.030279705443242
sg10
F2.9917730144773254
sg11
F0.36337571364508225
sa(dp2172
g8
F17.963439446484305
sg10
F20.45117882183331
sg11
F22.870842483078157
sa(dp2173
g8
F7.107398733086425
sg10
F6.080932459506566
sg11
F18.928359260114707
sa(dp2174
g8
F58.84623917663089
sg10
F65.04923035662326
sg11
F69.43762662903134
sa(dp2175
g8
F28.716923471562847
sg10
F27.30148137038248
sg11
F4.629970049762073
sa(dp2176
g8
F20.763018588906558
sg10
F19.741035609865964
sg11
F3.3478626805948655
sa(dp2177
g8
F9.287186077893502
sg10
F8.791345046758188
sg11
F4.340406916881077
sa(dp2178
g8
F14.47238660685897
sg10
F13.97513065046988
sg11
F2.376698705692028
sa(dp2179
g8
F18.092728126792213
sg10
F6.027146465822749
sg11
F0.6755782311367726
sa(dp2180
g8
F13.860980897438374
sg10
F21.140702556356093
sg11
F50.820805398244666
sa(dp2181
g8
F5.207231596400428
sg10
F12.962164312406099
sg11
F47.50694506732209
sa(dp2182
g8
F8.827376113675893
sg10
F16.13084002195831
sg11
F44.995646598984365
sa(dp2183
g8
F20.370769659222386
sg10
F19.836643186292108
sg11
F15.929401113937121
sa(dp2184
g8
F25.00790352755364
sg10
F22.8638659451075
sg11
F3.8491423410575853
sa(dp2185
g8
F24.03438823976352
sg10
F20.141870240813844
sg11
F5.290320503721206
sa(dp2186
g8
F9.411522771246492
sg10
F9.072185597387065
sg11
F1.542385449629521
sa(dp2187
g8
F18.04011942850328
sg10
F16.953186586512054
sg11
F2.86890312816542
sa(dp2188
g8
F8.568599846869366
sg10
F3.5592239126846397
sg11
F0.4613342546343344
sa(dp2189
g8
F22.238856280731053
sg10
F19.233690970090166
sg11
F4.540560168037872
sa(dp2190
g8
F10.837934831029285
sg10
F7.83025944318753
sg11
F1.2511954660872648
sa(dp2191
g8
F8.868615167623505
sg10
F10.950445874965782
sg11
F25.95923054462118
sa(dp2192
g8
F7.320328889793116
sg10
F14.798419138541325
sg11
F48.052446799554566
sa(dp2193
g8
F16.64338231582251
sg10
F18.652157931129594
sg11
F26.737145024449887
sa(dp2194
g8
F19.66865139454482
sg10
F19.036922470582716
sg11
F6.998130424000699
sa(dp2195
g8
F11.704944948160247
sg10
F10.429588845444487
sg11
F5.549637478082539
sa(dp2196
g8
F11.096077401430533
sg10
F10.127512348037248
sg11
F7.181348117568707
sa(dp2197
g8
F9.972354305244851
sg10
F9.972354305244851
sg11
F9.972354305244851
sasb.