ccopy_reg
_reconstructor
p0
(cmyhmm_scaled
MyHmmScaled
p1
c__builtin__
object
p2
Ntp3
Rp4
(dp5
S'A'
p6
(dp7
Vq1
p8
(dp9
g8
F0.8280988834999085
sVq3
p10
F0.1597225993400574
sVq2
p11
F0.01217851716003558
ssg10
(dp12
g8
F0.5373055268401998
sg10
F0.3030314930181989
sg11
F0.15966298014160127
ssg11
(dp13
g8
F0.00027562252783118485
sg10
F0.8765690138107575
sg11
F0.12315536366141126
sssS'symbols'
p14
(lp15
V11
p16
aV10
p17
aV13
p18
aV12
p19
aV15
p20
aV14
p21
aV1
p22
aV0
p23
aV3
p24
aV2
p25
aV5
p26
aV4
p27
aV7
p28
aV6
p29
aV9
p30
aV8
p31
asS'B'
p32
(dp33
g8
(dp34
g16
F0.06640614412080778
sg17
F0.018815631163430643
sg18
F0.5836579024481786
sg19
I0
sg20
I0
sg21
F0.04551336379690552
sg22
F0.014058630822886595
sg23
I0
sg24
F0.07965562908604941
sg25
F0.05939504384242447
sg26
F0.018632997757796026
sg27
F0.007932950121688305
sg28
F0.0291770430637652
sg29
F0.01270793208666817
sg30
F0.017865787075102738
sg31
F0.04618094461429817
ssg10
(dp35
g16
F0.07454689056682796
sg17
F0.08585546649925054
sg18
F0.10563317145666158
sg19
I0
sg20
I0
sg21
F0.027161285744637227
sg22
F0.008111930472681174
sg23
I0
sg24
F0.233520105828299
sg25
F0.0001660671272047012
sg26
F0.001931549725761586
sg27
F0.00024464730951440056
sg28
F0.08515211280022006
sg29
F0.08875413604983579
sg30
F0.11167849034494365
sg31
F0.17724414607416275
ssg11
(dp36
g16
F5.933881044494915e-06
sg17
F1.2942275657709384e-05
sg18
F2.0806897297409693e-07
sg19
I0
sg20
I0
sg21
F4.827839732489938e-08
sg22
F0.5315595418576606
sg23
I0
sg24
F0.000834579199208705
sg25
F4.902604252276455e-07
sg26
F0.3606839842971889
sg27
F0.09915579599952831
sg28
F0.0027176635133104006
sg29
F4.932961345454489e-05
sg30
F0.004907775447815302
sg31
F7.170730733546466e-05
sssS'bwk'
p37
(lp38
(dp39
a(dp40
a(dp41
a(dp42
a(dp43
a(dp44
a(dp45
a(dp46
a(dp47
a(dp48
a(dp49
a(dp50
a(dp51
a(dp52
a(dp53
a(dp54
a(dp55
a(dp56
a(dp57
a(dp58
a(dp59
a(dp60
a(dp61
a(dp62
a(dp63
a(dp64
a(dp65
a(dp66
a(dp67
a(dp68
a(dp69
a(dp70
a(dp71
a(dp72
a(dp73
a(dp74
a(dp75
a(dp76
a(dp77
a(dp78
a(dp79
a(dp80
a(dp81
a(dp82
a(dp83
a(dp84
a(dp85
a(dp86
a(dp87
a(dp88
a(dp89
a(dp90
a(dp91
a(dp92
a(dp93
a(dp94
a(dp95
a(dp96
a(dp97
a(dp98
a(dp99
a(dp100
a(dp101
a(dp102
a(dp103
a(dp104
a(dp105
a(dp106
a(dp107
a(dp108
a(dp109
a(dp110
a(dp111
a(dp112
a(dp113
a(dp114
a(dp115
a(dp116
a(dp117
a(dp118
a(dp119
a(dp120
a(dp121
a(dp122
a(dp123
a(dp124
a(dp125
a(dp126
a(dp127
a(dp128
a(dp129
a(dp130
a(dp131
a(dp132
a(dp133
a(dp134
a(dp135
a(dp136
a(dp137
a(dp138
a(dp139
a(dp140
a(dp141
a(dp142
a(dp143
a(dp144
a(dp145
a(dp146
a(dp147
a(dp148
a(dp149
a(dp150
a(dp151
a(dp152
a(dp153
a(dp154
a(dp155
a(dp156
a(dp157
a(dp158
a(dp159
a(dp160
a(dp161
a(dp162
a(dp163
a(dp164
a(dp165
a(dp166
a(dp167
a(dp168
a(dp169
a(dp170
a(dp171
a(dp172
a(dp173
a(dp174
a(dp175
a(dp176
a(dp177
a(dp178
a(dp179
a(dp180
a(dp181
a(dp182
a(dp183
a(dp184
a(dp185
a(dp186
a(dp187
a(dp188
a(dp189
a(dp190
a(dp191
a(dp192
a(dp193
a(dp194
a(dp195
a(dp196
a(dp197
a(dp198
a(dp199
a(dp200
a(dp201
a(dp202
a(dp203
a(dp204
a(dp205
a(dp206
a(dp207
a(dp208
a(dp209
a(dp210
a(dp211
a(dp212
a(dp213
a(dp214
a(dp215
a(dp216
a(dp217
a(dp218
a(dp219
a(dp220
a(dp221
a(dp222
a(dp223
a(dp224
a(dp225
a(dp226
a(dp227
a(dp228
a(dp229
a(dp230
a(dp231
a(dp232
a(dp233
a(dp234
a(dp235
a(dp236
a(dp237
a(dp238
a(dp239
a(dp240
a(dp241
a(dp242
a(dp243
a(dp244
a(dp245
a(dp246
a(dp247
a(dp248
a(dp249
a(dp250
a(dp251
a(dp252
a(dp253
a(dp254
a(dp255
a(dp256
a(dp257
a(dp258
a(dp259
a(dp260
a(dp261
a(dp262
a(dp263
a(dp264
a(dp265
a(dp266
a(dp267
a(dp268
a(dp269
a(dp270
a(dp271
a(dp272
a(dp273
a(dp274
a(dp275
a(dp276
a(dp277
a(dp278
a(dp279
a(dp280
a(dp281
a(dp282
a(dp283
a(dp284
a(dp285
a(dp286
a(dp287
a(dp288
a(dp289
a(dp290
a(dp291
a(dp292
a(dp293
a(dp294
a(dp295
a(dp296
a(dp297
a(dp298
a(dp299
a(dp300
a(dp301
a(dp302
a(dp303
a(dp304
a(dp305
a(dp306
a(dp307
a(dp308
a(dp309
a(dp310
a(dp311
a(dp312
a(dp313
a(dp314
a(dp315
a(dp316
a(dp317
a(dp318
a(dp319
a(dp320
a(dp321
a(dp322
a(dp323
a(dp324
a(dp325
a(dp326
a(dp327
a(dp328
a(dp329
a(dp330
a(dp331
a(dp332
a(dp333
a(dp334
a(dp335
a(dp336
a(dp337
a(dp338
a(dp339
a(dp340
a(dp341
a(dp342
a(dp343
a(dp344
a(dp345
a(dp346
a(dp347
a(dp348
a(dp349
a(dp350
a(dp351
a(dp352
a(dp353
a(dp354
a(dp355
a(dp356
a(dp357
a(dp358
a(dp359
a(dp360
a(dp361
a(dp362
a(dp363
a(dp364
a(dp365
a(dp366
a(dp367
a(dp368
a(dp369
a(dp370
a(dp371
a(dp372
a(dp373
a(dp374
a(dp375
a(dp376
a(dp377
a(dp378
a(dp379
a(dp380
a(dp381
a(dp382
a(dp383
a(dp384
a(dp385
a(dp386
a(dp387
a(dp388
a(dp389
a(dp390
a(dp391
a(dp392
a(dp393
a(dp394
a(dp395
a(dp396
a(dp397
a(dp398
a(dp399
a(dp400
a(dp401
a(dp402
a(dp403
a(dp404
a(dp405
a(dp406
a(dp407
a(dp408
a(dp409
a(dp410
a(dp411
a(dp412
a(dp413
a(dp414
a(dp415
a(dp416
a(dp417
a(dp418
a(dp419
a(dp420
a(dp421
a(dp422
a(dp423
a(dp424
a(dp425
a(dp426
a(dp427
a(dp428
a(dp429
a(dp430
a(dp431
a(dp432
a(dp433
a(dp434
a(dp435
a(dp436
a(dp437
a(dp438
a(dp439
a(dp440
a(dp441
a(dp442
a(dp443
a(dp444
a(dp445
a(dp446
a(dp447
a(dp448
a(dp449
a(dp450
a(dp451
a(dp452
a(dp453
a(dp454
a(dp455
a(dp456
a(dp457
a(dp458
a(dp459
a(dp460
a(dp461
a(dp462
a(dp463
a(dp464
a(dp465
a(dp466
a(dp467
a(dp468
a(dp469
a(dp470
a(dp471
a(dp472
a(dp473
a(dp474
a(dp475
a(dp476
a(dp477
a(dp478
a(dp479
a(dp480
a(dp481
a(dp482
a(dp483
a(dp484
a(dp485
a(dp486
a(dp487
a(dp488
a(dp489
a(dp490
a(dp491
a(dp492
a(dp493
a(dp494
a(dp495
a(dp496
a(dp497
a(dp498
a(dp499
a(dp500
a(dp501
a(dp502
a(dp503
a(dp504
a(dp505
a(dp506
a(dp507
a(dp508
a(dp509
a(dp510
a(dp511
a(dp512
a(dp513
a(dp514
a(dp515
a(dp516
a(dp517
a(dp518
a(dp519
a(dp520
a(dp521
a(dp522
a(dp523
a(dp524
a(dp525
a(dp526
a(dp527
a(dp528
a(dp529
a(dp530
a(dp531
a(dp532
a(dp533
a(dp534
a(dp535
a(dp536
a(dp537
a(dp538
a(dp539
a(dp540
a(dp541
a(dp542
a(dp543
a(dp544
a(dp545
a(dp546
a(dp547
a(dp548
a(dp549
a(dp550
a(dp551
a(dp552
a(dp553
a(dp554
a(dp555
a(dp556
a(dp557
a(dp558
a(dp559
a(dp560
a(dp561
a(dp562
a(dp563
a(dp564
a(dp565
a(dp566
a(dp567
a(dp568
a(dp569
a(dp570
a(dp571
a(dp572
a(dp573
a(dp574
a(dp575
a(dp576
a(dp577
a(dp578
a(dp579
a(dp580
a(dp581
g8
I1
sg10
I1
sg11
I1
sasS'fwd'
p582
(lp583
(dp584
g8
F4.042427715162695e-58
sg10
F4.729246308713881e-86
sg11
F0.5448781725959458
sa(dp585
a(dp586
a(dp587
a(dp588
a(dp589
a(dp590
a(dp591
a(dp592
a(dp593
a(dp594
a(dp595
a(dp596
a(dp597
a(dp598
a(dp599
a(dp600
a(dp601
a(dp602
a(dp603
a(dp604
a(dp605
a(dp606
a(dp607
a(dp608
a(dp609
a(dp610
a(dp611
a(dp612
a(dp613
a(dp614
a(dp615
a(dp616
a(dp617
a(dp618
a(dp619
a(dp620
a(dp621
a(dp622
a(dp623
a(dp624
a(dp625
a(dp626
a(dp627
a(dp628
a(dp629
a(dp630
a(dp631
a(dp632
a(dp633
a(dp634
a(dp635
a(dp636
a(dp637
a(dp638
a(dp639
a(dp640
a(dp641
a(dp642
a(dp643
a(dp644
a(dp645
a(dp646
a(dp647
a(dp648
a(dp649
a(dp650
a(dp651
a(dp652
a(dp653
a(dp654
a(dp655
a(dp656
a(dp657
a(dp658
a(dp659
a(dp660
a(dp661
a(dp662
a(dp663
a(dp664
a(dp665
a(dp666
a(dp667
a(dp668
a(dp669
a(dp670
a(dp671
a(dp672
a(dp673
a(dp674
a(dp675
a(dp676
a(dp677
a(dp678
a(dp679
a(dp680
a(dp681
a(dp682
a(dp683
a(dp684
a(dp685
a(dp686
a(dp687
a(dp688
a(dp689
a(dp690
a(dp691
a(dp692
a(dp693
a(dp694
a(dp695
a(dp696
a(dp697
a(dp698
a(dp699
a(dp700
a(dp701
a(dp702
a(dp703
a(dp704
a(dp705
a(dp706
a(dp707
a(dp708
a(dp709
a(dp710
a(dp711
a(dp712
a(dp713
a(dp714
a(dp715
a(dp716
a(dp717
a(dp718
a(dp719
a(dp720
a(dp721
a(dp722
a(dp723
a(dp724
a(dp725
a(dp726
a(dp727
a(dp728
a(dp729
a(dp730
a(dp731
a(dp732
a(dp733
a(dp734
a(dp735
a(dp736
a(dp737
a(dp738
a(dp739
a(dp740
a(dp741
a(dp742
a(dp743
a(dp744
a(dp745
a(dp746
a(dp747
a(dp748
a(dp749
a(dp750
a(dp751
a(dp752
a(dp753
a(dp754
a(dp755
a(dp756
a(dp757
a(dp758
a(dp759
a(dp760
a(dp761
a(dp762
a(dp763
a(dp764
a(dp765
a(dp766
a(dp767
a(dp768
a(dp769
a(dp770
a(dp771
a(dp772
a(dp773
a(dp774
a(dp775
a(dp776
a(dp777
a(dp778
a(dp779
a(dp780
a(dp781
a(dp782
a(dp783
a(dp784
a(dp785
a(dp786
a(dp787
a(dp788
a(dp789
a(dp790
a(dp791
a(dp792
a(dp793
a(dp794
a(dp795
a(dp796
a(dp797
a(dp798
a(dp799
a(dp800
a(dp801
a(dp802
a(dp803
a(dp804
a(dp805
a(dp806
a(dp807
a(dp808
a(dp809
a(dp810
a(dp811
a(dp812
a(dp813
a(dp814
a(dp815
a(dp816
a(dp817
a(dp818
a(dp819
a(dp820
a(dp821
a(dp822
a(dp823
a(dp824
a(dp825
a(dp826
a(dp827
a(dp828
a(dp829
a(dp830
a(dp831
a(dp832
a(dp833
a(dp834
a(dp835
a(dp836
a(dp837
a(dp838
a(dp839
a(dp840
a(dp841
a(dp842
a(dp843
a(dp844
a(dp845
a(dp846
a(dp847
a(dp848
a(dp849
a(dp850
a(dp851
a(dp852
a(dp853
a(dp854
a(dp855
a(dp856
a(dp857
a(dp858
a(dp859
a(dp860
a(dp861
a(dp862
a(dp863
a(dp864
a(dp865
a(dp866
a(dp867
a(dp868
a(dp869
a(dp870
a(dp871
a(dp872
a(dp873
a(dp874
a(dp875
a(dp876
a(dp877
a(dp878
a(dp879
a(dp880
a(dp881
a(dp882
a(dp883
a(dp884
a(dp885
a(dp886
a(dp887
a(dp888
a(dp889
a(dp890
a(dp891
a(dp892
a(dp893
a(dp894
a(dp895
a(dp896
a(dp897
a(dp898
a(dp899
a(dp900
a(dp901
a(dp902
a(dp903
a(dp904
a(dp905
a(dp906
a(dp907
a(dp908
a(dp909
a(dp910
a(dp911
a(dp912
a(dp913
a(dp914
a(dp915
a(dp916
a(dp917
a(dp918
a(dp919
a(dp920
a(dp921
a(dp922
a(dp923
a(dp924
a(dp925
a(dp926
a(dp927
a(dp928
a(dp929
a(dp930
a(dp931
a(dp932
a(dp933
a(dp934
a(dp935
a(dp936
a(dp937
a(dp938
a(dp939
a(dp940
a(dp941
a(dp942
a(dp943
a(dp944
a(dp945
a(dp946
a(dp947
a(dp948
a(dp949
a(dp950
a(dp951
a(dp952
a(dp953
a(dp954
a(dp955
a(dp956
a(dp957
a(dp958
a(dp959
a(dp960
a(dp961
a(dp962
a(dp963
a(dp964
a(dp965
a(dp966
a(dp967
a(dp968
a(dp969
a(dp970
a(dp971
a(dp972
a(dp973
a(dp974
a(dp975
a(dp976
a(dp977
a(dp978
a(dp979
a(dp980
a(dp981
a(dp982
a(dp983
a(dp984
a(dp985
a(dp986
a(dp987
a(dp988
a(dp989
a(dp990
a(dp991
a(dp992
a(dp993
a(dp994
a(dp995
a(dp996
a(dp997
a(dp998
a(dp999
a(dp1000
a(dp1001
a(dp1002
a(dp1003
a(dp1004
a(dp1005
a(dp1006
a(dp1007
a(dp1008
a(dp1009
a(dp1010
a(dp1011
a(dp1012
a(dp1013
a(dp1014
a(dp1015
a(dp1016
a(dp1017
a(dp1018
a(dp1019
a(dp1020
a(dp1021
a(dp1022
a(dp1023
a(dp1024
a(dp1025
a(dp1026
a(dp1027
a(dp1028
a(dp1029
a(dp1030
a(dp1031
a(dp1032
a(dp1033
a(dp1034
a(dp1035
a(dp1036
a(dp1037
a(dp1038
a(dp1039
a(dp1040
a(dp1041
a(dp1042
a(dp1043
a(dp1044
a(dp1045
a(dp1046
a(dp1047
a(dp1048
a(dp1049
a(dp1050
a(dp1051
a(dp1052
a(dp1053
a(dp1054
a(dp1055
a(dp1056
a(dp1057
a(dp1058
a(dp1059
a(dp1060
a(dp1061
a(dp1062
a(dp1063
a(dp1064
a(dp1065
a(dp1066
a(dp1067
a(dp1068
a(dp1069
a(dp1070
a(dp1071
a(dp1072
a(dp1073
a(dp1074
a(dp1075
a(dp1076
a(dp1077
a(dp1078
a(dp1079
a(dp1080
a(dp1081
a(dp1082
a(dp1083
a(dp1084
a(dp1085
a(dp1086
a(dp1087
a(dp1088
a(dp1089
a(dp1090
a(dp1091
a(dp1092
a(dp1093
a(dp1094
a(dp1095
a(dp1096
a(dp1097
a(dp1098
a(dp1099
a(dp1100
a(dp1101
a(dp1102
a(dp1103
a(dp1104
a(dp1105
a(dp1106
a(dp1107
a(dp1108
a(dp1109
a(dp1110
a(dp1111
a(dp1112
a(dp1113
a(dp1114
a(dp1115
a(dp1116
a(dp1117
a(dp1118
a(dp1119
a(dp1120
a(dp1121
a(dp1122
a(dp1123
a(dp1124
a(dp1125
a(dp1126
asS'logpi'
p1127
(dp1128
g8
F-1.0986122886681098
sg10
F-1.0986122886681098
sg11
F-1.0986122886681098
ssS'M'
p1129
I16
sS'fwd_scaled'
p1130
(lp1131
(dp1132
g8
F7.41895696776306e-58
sg10
F8.679456338253527e-86
sg11
F1.0
sa(dp1133
g8
F0.00011267273458189182
sg10
F0.9992687576902429
sg11
F0.0006185695751752034
sa(dp1134
g8
F0.9137978752234241
sg10
F0.08620199872905202
sg11
F1.2604752393330157e-07
sa(dp1135
g8
F0.9587851753306362
sg10
F0.041214809436748504
sg11
F1.523261536981763e-08
sa(dp1136
g8
F0.9604194328912129
sg10
F0.03958055591438571
sg11
F1.1194401374982931e-08
sa(dp1137
g8
F0.9604780514816065
sg10
F0.039521937468837455
sg11
F1.1049556150351098e-08
sa(dp1138
g8
F0.6149331512767237
sg10
F0.38488144903602
sg11
F0.00018539968725639304
sa(dp1139
g8
F0.2078237189332159
sg10
F0.03249138099711525
sg11
F0.7596849000696688
sa(dp1140
g8
F0.06176822634366891
sg10
F0.9381730504011332
sg11
F5.87232551978765e-05
sa(dp1141
g8
F0.9178880257354045
sg10
F0.08211185800720065
sg11
F1.1625739482080474e-07
sa(dp1142
g8
F0.9589354225930325
sg10
F0.04106456254560987
sg11
F1.4861357614025742e-08
sa(dp1143
g8
F0.49125710080576473
sg10
F0.5073370901196098
sg11
F0.0014058090746253765
sa(dp1144
g8
F0.9409304121964776
sg10
F0.059069529124372015
sg11
F5.867915032755869e-08
sa(dp1145
g8
F0.9597756104872636
sg10
F0.04022437672746402
sg11
F1.2785272404658755e-08
sa(dp1146
g8
F0.9604549646422249
sg10
F0.039545024251171915
sg11
F1.1106603213642871e-08
sa(dp1147
g8
F0.9604793253810112
sg10
F0.03952066357258049
sg11
F1.1046408373439369e-08
sa(dp1148
g8
F0.960480198758389
sg10
F0.03951979019736086
sg11
F1.1044250277490409e-08
sa(dp1149
g8
F0.614933633256229
sg10
F0.38488097011931893
sg11
F0.00018539662445227098
sa(dp1150
g8
F0.5386988284587882
sg10
F0.460632593131523
sg11
F0.000668578409688597
sa(dp1151
g8
F0.9432795999602882
sg10
F0.05672034680783387
sg11
F5.323187772701759e-08
sa(dp1152
g8
F0.9598606766772594
sg10
F0.040139310747665066
sg11
F1.2575075603354857e-08
sa(dp1153
g8
F0.9604580154937354
sg10
F0.039541973407199865
sg11
F1.1099064627856245e-08
sa(dp1154
g8
F0.9604794347602909
sg10
F0.039520554193571006
sg11
F1.10461380996877e-08
sa(dp1155
g8
F0.9604802026798117
sg10
F0.039519786275947794
sg11
F1.104424058774253e-08
sa(dp1156
g8
F0.9604802302109526
sg10
F0.039519758744874754
sg11
F1.1044172558909305e-08
sa(dp1157
g8
F0.9604802311979878
sg10
F0.03951975775784205
sg11
F1.1044170119967527e-08
sa(dp1158
g8
F0.9604802312333746
sg10
F0.03951975772245534
sg11
F1.104417003252759e-08
sa(dp1159
g8
F0.9604802312346433
sg10
F0.039519757721186696
sg11
F1.104417002939273e-08
sa(dp1160
g8
F0.9604802312346888
sg10
F0.039519757721141205
sg11
F1.1044170029280342e-08
sa(dp1161
g8
F0.9604802312346904
sg10
F0.03951975772113957
sg11
F1.1044170029276312e-08
sa(dp1162
g8
F0.4682676838640808
sg10
F0.5317173052464437
sg11
F1.5010889475436465e-05
sa(dp1163
g8
F0.9988599252017046
sg10
F0.0011393108426088296
sg11
F7.63955686510198e-07
sa(dp1164
g8
F0.9062563111428988
sg10
F0.09374367951836984
sg11
F9.338731246233825e-09
sa(dp1165
g8
F0.4556459723665027
sg10
F0.544332930432987
sg11
F2.1097200510175732e-05
sa(dp1166
g8
F0.36010996633272807
sg10
F0.6398228789825504
sg11
F6.715468472151527e-05
sa(dp1167
g8
F0.3417480885412885
sg10
F0.6581759257112647
sg11
F7.598574744673821e-05
sa(dp1168
g8
F0.4028634377893038
sg10
F0.5971125451978251
sg11
F2.4017012871165526e-05
sa(dp1169
g8
F0.4208395242979165
sg10
F0.5790515298727003
sg11
F0.00010894582938332488
sa(dp1170
g8
F0.9378015911921694
sg10
F0.06219834177784875
sg11
F6.702998189649175e-08
sa(dp1171
g8
F0.5321751396019178
sg10
F0.46781961418993795
sg11
F5.2462081440608565e-06
sa(dp1172
g8
F0.7666780275767205
sg10
F0.2333162424273952
sg11
F5.729995884063423e-06
sa(dp1173
g8
F0.9991201615628379
sg10
F0.0008794801623859985
sg11
F3.5827477615096843e-07
sa(dp1174
g8
F0.6236254811519517
sg10
F0.376244358845818
sg11
F0.0001301600022303327
sa(dp1175
g8
F0.5425163155948083
sg10
F0.45338207989651474
sg11
F0.004101604508676836
sa(dp1176
g8
F0.18192780969137648
sg10
F0.03070709694555894
sg11
F0.7873650933630646
sa(dp1177
g8
F0.04019203134507199
sg10
F0.9597725611655724
sg11
F3.5407489355632454e-05
sa(dp1178
g8
F0.2638260636556814
sg10
F0.004408576683527722
sg11
F0.7317653596607909
sa(dp1179
g8
F0.05513687219604362
sg10
F0.9448296306322969
sg11
F3.349717165968518e-05
sa(dp1180
g8
F0.3470832877578779
sg10
F0.6528845862619386
sg11
F3.212598018342534e-05
sa(dp1181
g8
F0.33932378694916754
sg10
F0.6605990404550777
sg11
F7.717259575489455e-05
sa(dp1182
g8
F0.40785344166038695
sg10
F0.5920284084078075
sg11
F0.0001181499318055942
sa(dp1183
g8
F0.9987998142580169
sg10
F0.0011993286995091391
sg11
F8.570424739543162e-07
sa(dp1184
g8
F0.8495702813446901
sg10
F0.006184692085924242
sg11
F0.14424502656938576
sa(dp1185
g8
F0.9296145733566263
sg10
F0.07038540675242806
sg11
F1.98909455915192e-08
sa(dp1186
g8
F0.9593643361615202
sg10
F0.04063565003692967
sg11
F1.3801550154044723e-08
sa(dp1187
g8
F0.9604402125353352
sg10
F0.03955977632160944
sg11
F1.1143055339516139e-08
sa(dp1188
g8
F0.6179101699681269
sg10
F0.38092996123324524
sg11
F0.0011598687986277374
sa(dp1189
g8
F0.5403167972323623
sg10
F0.45553864651184195
sg11
F0.004144556255795762
sa(dp1190
g8
F0.18122742284881746
sg10
F0.030650992070122597
sg11
F0.7881215850810599
sa(dp1191
g8
F0.035807499784741986
sg10
F0.08655171920848413
sg11
F0.8776407810067738
sa(dp1192
g8
F0.01775115440499267
sg10
F0.9822101095708351
sg11
F3.8736024172183376e-05
sa(dp1193
g8
F0.16672619211286221
sg10
F0.008032761981039742
sg11
F0.825241045906098
sa(dp1194
g8
F0.04431725949348256
sg10
F0.9556243410275446
sg11
F5.8399478972844555e-05
sa(dp1195
g8
F0.08869815936675314
sg10
F0.02239053233270464
sg11
F0.8889113083005422
sa(dp1196
g8
F0.025769960497153105
sg10
F0.9741691558531622
sg11
F6.088364968461227e-05
sa(dp1197
g8
F0.3415521128306415
sg10
F0.6584149618948097
sg11
F3.2925274548833104e-05
sa(dp1198
g8
F0.3575906163825054
sg10
F0.6351700010468369
sg11
F0.007239382570657742
sa(dp1199
g8
F0.47788576948406414
sg10
F0.5211064506003311
sg11
F0.001007779915604866
sa(dp1200
g8
F0.9403769105701288
sg10
F0.05962302919442847
sg11
F6.023544279588374e-08
sa(dp1201
g8
F0.9597555518191199
sg10
F0.040244435346043266
sg11
F1.2834836845498275e-08
sa(dp1202
g8
F0.9604542452287921
sg10
F0.039545743662826864
sg11
F1.1108380868130157e-08
sa(dp1203
g8
F0.6149278077136248
sg10
F0.3848867586427225
sg11
F0.0001854336436526895
sa(dp1204
g8
F0.8721660699046089
sg10
F0.12783387680951624
sg11
F5.328587473733344e-08
sa(dp1205
g8
F0.9572365143620385
sg10
F0.04276346657856442
sg11
F1.9059397062440737e-08
sa(dp1206
g8
F0.9603638366325512
sg10
F0.03963615203567042
sg11
F1.1331778485532124e-08
sa(dp1207
g8
F0.5374576082110688
sg10
F0.46253791285687634
sg11
F4.4789320547621704e-06
sa(dp1208
g8
F0.18064781852363074
sg10
F0.03017011198343141
sg11
F0.7891820694929379
sa(dp1209
g8
F0.5336556056404241
sg10
F0.46634422414096355
sg11
F1.7021861235203125e-07
sa(dp1210
g8
F0.37555777857165706
sg10
F0.6243825050186442
sg11
F5.971640969885253e-05
sa(dp1211
g8
F0.847733712460901
sg10
F0.15226620261706197
sg11
F8.492203711262638e-08
sa(dp1212
g8
F0.4650127142116754
sg10
F0.5324358049147635
sg11
F0.002551480873561146
sa(dp1213
g8
F0.431474045071303
sg10
F0.5684265428605053
sg11
F9.941206819166201e-05
sa(dp1214
g8
F0.4266640243402303
sg10
F0.5732312348426236
sg11
F0.000104740817146027
sa(dp1215
g8
F0.49855992256776066
sg10
F0.5005158685336303
sg11
F0.0009242088986091139
sa(dp1216
g8
F0.9988852363509912
sg10
F0.0011140445441573063
sg11
F7.191048515408934e-07
sa(dp1217
g8
F0.8332356570726772
sg10
F0.1667634742496082
sg11
F8.686777147876987e-07
sa(dp1218
g8
F0.43905819351548525
sg10
F0.5609127109739589
sg11
F2.9095510555800618e-05
sa(dp1219
g8
F0.7522116954509582
sg10
F0.24778151911052318
sg11
F6.785438518680771e-06
sa(dp1220
g8
F0.27632015915448166
sg10
F0.038268458562672775
sg11
F0.6854113822828456
sa(dp1221
g8
F0.07056232089719251
sg10
F0.9261175550440568
sg11
F0.003320124058750781
sa(dp1222
g8
F0.42279348703747077
sg10
F0.5685535449320888
sg11
F0.008652968030440612
sa(dp1223
g8
F0.7439350811516532
sg10
F0.25605796851939955
sg11
F6.950328947129908e-06
sa(dp1224
g8
F0.5846307367365307
sg10
F0.005381267989828605
sg11
F0.40998799527364077
sa(dp1225
g8
F0.5136705056986369
sg10
F0.48632535126375065
sg11
F4.143037612609815e-06
sa(dp1226
g8
F0.3715602691402474
sg10
F0.6283780888857964
sg11
F6.164197395603216e-05
sa(dp1227
g8
F0.486985311126835
sg10
F0.5120166335467603
sg11
F0.0009980553264045877
sa(dp1228
g8
F0.5120711881146747
sg10
F0.4826730404271877
sg11
F0.005255771458137722
sa(dp1229
g8
F0.7601628765312294
sg10
F0.23983118157853636
sg11
F5.941890234360304e-06
sa(dp1230
g8
F0.45956910603189227
sg10
F0.011798965144897903
sg11
F0.5286319288232099
sa(dp1231
g8
F0.14869860338444044
sg10
F0.851251291503097
sg11
F5.010511246250781e-05
sa(dp1232
g8
F0.30329950097750286
sg10
F0.69660596343671
sg11
F9.453558578710893e-05
sa(dp1233
g8
F0.9986900537005244
sg10
F0.0013089180058047194
sg11
F1.0282936708684198e-06
sa(dp1234
g8
F0.8332095153871667
sg10
F0.1667896140401137
sg11
F8.705727197018535e-07
sa(dp1235
g8
F0.5865715634332034
sg10
F0.41306281309984455
sg11
F0.0003656234669521153
sa(dp1236
g8
F0.4069638574685319
sg10
F0.5879681448865987
sg11
F0.005067997644869401
sa(dp1237
g8
F0.4900688042556993
sg10
F0.5089864435493585
sg11
F0.0009447521949420578
sa(dp1238
g8
F0.94096631399563
sg10
F0.05903362719333271
sg11
F5.8811037180979076e-08
sa(dp1239
g8
F0.9014912541938204
sg10
F0.09850873031012279
sg11
F1.5496056778411274e-08
sa(dp1240
g8
F0.7295756614711466
sg10
F0.00582073225515598
sg11
F0.2646036062736974
sa(dp1241
g8
F0.8957489101594067
sg10
F0.10425105754338876
sg11
F3.22972045997855e-08
sa(dp1242
g8
F0.6004575465879615
sg10
F0.39926506556759844
sg11
F0.000277387844440055
sa(dp1243
g8
F0.9461267111257846
sg10
F0.05387324249070815
sg11
F4.638350722622309e-08
sa(dp1244
g8
F0.9599636275809478
sg10
F0.040036360098366044
sg11
F1.2320686146621952e-08
sa(dp1245
g8
F0.9030681419346882
sg10
F0.09693184460674172
sg11
F1.345857005403254e-08
sa(dp1246
g8
F0.47794063586895513
sg10
F0.5200722365687591
sg11
F0.0019871275622858073
sa(dp1247
g8
F0.2950489332000825
sg10
F0.009747395760212106
sg11
F0.6952036710397054
sa(dp1248
g8
F0.06994191772810537
sg10
F0.9268599427410462
sg11
F0.0031981395308484247
sa(dp1249
g8
F0.9983936441657295
sg10
F0.0016048872449294248
sg11
F1.4685893411114477e-06
sa(dp1250
g8
F0.9618254294030851
sg10
F0.038174562877340334
sg11
F7.719574553303162e-09
sa(dp1251
g8
F0.9605284411717654
sg10
F0.03947154790319043
sg11
F1.0925044354255127e-08
sa(dp1252
g8
F0.9604819596149761
sg10
F0.039518029345124585
sg11
F1.1039899240281528e-08
sa(dp1253
g8
F0.9604802931998409
sg10
F0.039519695756142295
sg11
F1.1044016914776842e-08
sa(dp1254
g8
F0.9604802334562395
sg10
F0.03951975549959594
sg11
F1.1044164539878183e-08
sa(dp1255
g8
F0.9604802313143365
sg10
F0.039519757641493646
sg11
F1.104416983247252e-08
sa(dp1256
g8
F0.46826768388281564
sg10
F0.531717305227718
sg11
F1.5010889466402484e-05
sa(dp1257
g8
F0.3827847834915103
sg10
F0.6110748513082832
sg11
F0.006140365200206384
sa(dp1258
g8
F0.3412857068178381
sg10
F0.6586411544650439
sg11
F7.313871711811014e-05
sa(dp1259
g8
F0.7365452212207149
sg10
F0.26344685131811785
sg11
F7.927461167350715e-06
sa(dp1260
g8
F0.4407968326586899
sg10
F0.011557580088916193
sg11
F0.5476455872523939
sa(dp1261
g8
F0.7697262934327911
sg10
F0.2302736272338146
sg11
F7.933339429624322e-08
sa(dp1262
g8
F0.2878068796771697
sg10
F0.0392397186787144
sg11
F0.6729534016441158
sa(dp1263
g8
F0.08964983810155029
sg10
F0.9102931143555691
sg11
F5.704754288077322e-05
sa(dp1264
g8
F0.9196169843498686
sg10
F0.08038290366376927
sg11
F1.1198636214480511e-07
sa(dp1265
g8
F0.9589988328829934
sg10
F0.041001152412334374
sg11
F1.4704672206522828e-08
sa(dp1266
g8
F0.960427099444435
sg10
F0.03957288938010734
sg11
F1.1175457493593567e-08
sa(dp1267
g8
F0.6149217145753463
sg10
F0.3848928130613277
sg11
F0.00018547236332610746
sa(dp1268
g8
F0.9467782045060366
sg10
F0.05322175067740919
sg11
F4.4816554301899384e-08
sa(dp1269
g8
F0.6147966132436781
sg10
F0.3839218089608753
sg11
F0.0012815777954465425
sa(dp1270
g8
F0.5395246001743498
sg10
F0.4563049469540247
sg11
F0.004170452871625518
sa(dp1271
g8
F0.9426331804718455
sg10
F0.057366766353408864
sg11
F5.3174745602366156e-08
sa(dp1272
g8
F0.9598372803469567
sg10
F0.04016270702015527
sg11
F1.2632888105725493e-08
sa(dp1273
g8
F0.9604571764113937
sg10
F0.03954281248746822
sg11
F1.1101137981538727e-08
sa(dp1274
g8
F0.9604794046774872
sg10
F0.03952058427630041
sg11
F1.1046212433622308e-08
sa(dp1275
g8
F0.9992636030313605
sg10
F0.0007362623054800861
sg11
F1.3466315949122383e-07
sa(dp1276
g8
F0.5010390664992933
sg10
F0.4979821536177876
sg11
F0.0009787798829191034
sa(dp1277
g8
F0.5151151445923052
sg10
F0.4797473088142851
sg11
F0.005137546593409643
sa(dp1278
g8
F0.9413096108167744
sg10
F0.05869033321438052
sg11
F5.596884504697107e-08
sa(dp1279
g8
F0.9992501822541693
sg10
F0.0007496621582933605
sg11
F1.5558753725889498e-07
sa(dp1280
g8
F0.9618557212864228
sg10
F0.03814427106831155
sg11
F7.645265624235234e-09
sa(dp1281
g8
F0.960529526384462
sg10
F0.03947046269317511
sg11
F1.0922362817748679e-08
sa(dp1282
g8
F0.5431733601868332
sg10
F0.45680476470293935
sg11
F2.187511022751023e-05
sa(dp1283
g8
F0.9436098441766421
sg10
F0.05639010310264228
sg11
F5.272071551835047e-08
sa(dp1284
g8
F0.6140752891875341
sg10
F0.3846149364487817
sg11
F0.0013097743636841823
sa(dp1285
g8
F0.8716145399565156
sg10
F0.12838540666102374
sg11
F5.3382460747520826e-08
sa(dp1286
g8
F0.9572157577886723
sg10
F0.04278422310064104
sg11
F1.911068664364591e-08
sa(dp1287
g8
F0.6870989078935484
sg10
F0.014725367419162598
sg11
F0.298175724687289
sa(dp1288
g8
F0.3339115349330758
sg10
F0.6657177658694506
sg11
F0.0003706991974736184
sa(dp1289
g8
F0.7351462670683034
sg10
F0.26484571868265355
sg11
F8.014249042912582e-06
sa(dp1290
g8
F0.9518755547283335
sg10
F0.04812441296884352
sg11
F3.2302822962538e-08
sa(dp1291
g8
F0.9601710197009945
sg10
F0.039828968490780575
sg11
F1.1808224808442157e-08
sa(dp1292
g8
F0.960469144581976
sg10
F0.03953084434645899
sg11
F1.1071564899948548e-08
sa(dp1293
g8
F0.6924095336596043
sg10
F0.014793676526209634
sg11
F0.29279678981418605
sa(dp1294
g8
F0.38564396695191244
sg10
F0.025781827207679367
sg11
F0.5885742058404081
sa(dp1295
g8
F0.12230417298152396
sg10
F0.8776424169938181
sg11
F5.3410024658111665e-05
sa(dp1296
g8
F0.9984775975887289
sg10
F0.001521042636515485
sg11
F1.3597747555760359e-06
sa(dp1297
g8
F0.9618283958694734
sg10
F0.03817159641823727
sg11
F7.71228936752075e-09
sa(dp1298
g8
F0.615236273979368
sg10
F0.38458025256768885
sg11
F0.00018347345294329748
sa(dp1299
g8
F0.7791050581460669
sg10
F0.22089012837929933
sg11
F4.8134746337410525e-06
sa(dp1300
g8
F0.5769987031082148
sg10
F0.42024238200090025
sg11
F0.0027589148908849373
sa(dp1301
g8
F0.9446100859626516
sg10
F0.055389865065044036
sg11
F4.897230424580299e-08
sa(dp1302
g8
F0.9992525042394144
sg10
F0.000747343793267005
sg11
F1.5196731867476314e-07
sa(dp1303
g8
F0.8332848339614162
sg10
F0.1667143009263707
sg11
F8.651122132829286e-07
sa(dp1304
g8
F0.9557573753123673
sg10
F0.04424260197362485
sg11
F2.2714007950171014e-08
sa(dp1305
g8
F0.5420551684106153
sg10
F0.4579221604497496
sg11
F2.2671139635187338e-05
sa(dp1306
g8
F0.5248406479105453
sg10
F0.47036229453919615
sg11
F0.004797057550258496
sa(dp1307
g8
F0.9418306901062942
sg10
F0.058169255043031644
sg11
F5.485067425678883e-08
sa(dp1308
g8
F0.9598082234929416
sg10
F0.04019176380237137
sg11
F1.2704687070509793e-08
sa(dp1309
g8
F0.614782806896536
sg10
F0.3850308380324571
sg11
F0.00018635507100691885
sa(dp1310
g8
F0.4652617896822838
sg10
F0.5346610177805223
sg11
F7.719253719374603e-05
sa(dp1311
g8
F0.9399621709765761
sg10
F0.06003776731620138
sg11
F6.170722263559997e-08
sa(dp1312
g8
F0.9597405178175709
sg10
F0.04025946931044381
sg11
F1.2871985339190012e-08
sa(dp1313
g8
F0.9604537060222337
sg10
F0.039546282868053124
sg11
F1.110971323546595e-08
sa(dp1314
g8
F0.6149276866832261
sg10
F0.38488687890401724
sg11
F0.00018543441275677006
sa(dp1315
g8
F0.9467784723239249
sg10
F0.05322148286016487
sg11
F4.481591015392725e-08
sa(dp1316
g8
F0.959987172716269
sg10
F0.04001281502122452
sg11
F1.2262506626344121e-08
sa(dp1317
g8
F0.9604625519438587
sg10
F0.03953743696828607
sg11
F1.1087855161154262e-08
sa(dp1318
g8
F0.5431576578693097
sg10
F0.45682045584214204
sg11
F2.1886288548421075e-05
sa(dp1319
g8
F0.7683440371427462
sg10
F0.2316503553835011
sg11
F5.607473752584692e-06
sa(dp1320
g8
F0.9532130261998081
sg10
F0.04678694480117616
sg11
F2.8999015880622037e-08
sa(dp1321
g8
F0.9602191768563774
sg10
F0.039780811454393016
sg11
F1.1689229555091218e-08
sa(dp1322
g8
F0.8280659285674321
sg10
F0.17193282511097008
sg11
F1.2463215976847356e-06
sa(dp1323
g8
F0.9555563299920115
sg10
F0.04444364679736194
sg11
F2.321062664257493e-08
sa(dp1324
g8
F0.9603034659519908
sg10
F0.039696522567056074
sg11
F1.1480953085939687e-08
sa(dp1325
g8
F0.9604738936152144
sg10
F0.03952609532495558
sg11
F1.1059830145128413e-08
sa(dp1326
g8
F0.9604800040205731
sg10
F0.039519984934695385
sg11
F1.1044731470273661e-08
sa(dp1327
g8
F0.9604802230887028
sg10
F0.03951976586710699
sg11
F1.1044190157829185e-08
sa(dp1328
g8
F0.9604802309426439
sg10
F0.03951975801318539
sg11
F1.104417075091677e-08
sa(dp1329
g8
F0.9604802312242202
sg10
F0.03951975773160982
sg11
F1.1044170055148122e-08
sa(dp1330
g8
F0.960480231234315
sg10
F0.03951975772151489
sg11
F1.1044170030203713e-08
sa(dp1331
g8
F0.960480231234677
sg10
F0.03951975772115297
sg11
F1.1044170029309417e-08
sa(dp1332
g8
F0.5374849391668857
sg10
F0.4625105858708682
sg11
F4.474962246287186e-06
sa(dp1333
g8
F0.943353591451814
sg10
F0.056646355186084095
sg11
F5.336210202777072e-08
sa(dp1334
g8
F0.959863354160059
sg10
F0.04013663327148152
sg11
F1.2568459472012119e-08
sa(dp1335
g8
F0.828018079429996
sg10
F0.17198067075341855
sg11
F1.2498165855052437e-06
sa(dp1336
g8
F0.9555544839973299
sg10
F0.04444549278748357
sg11
F2.3215186586930496e-08
sa(dp1337
g8
F0.9603033995933425
sg10
F0.039696588925540455
sg11
F1.1481117056674865e-08
sa(dp1338
g8
F0.49158657098425734
sg10
F0.5070220024948521
sg11
F0.0013914265208906079
sa(dp1339
g8
F0.38637177165058073
sg10
F0.6077094087664308
sg11
F0.005918819582988618
sa(dp1340
g8
F0.9348689400423831
sg10
F0.06513098856391573
sg11
F7.139370127475425e-08
sa(dp1341
g8
F0.959555616184164
sg10
F0.04044437048696179
sg11
F1.332887435458495e-08
sa(dp1342
g8
F0.9604470740174239
sg10
F0.039552914856475344
sg11
F1.1126100770886906e-08
sa(dp1343
g8
F0.9604790424851014
sg10
F0.03952094646779118
sg11
F1.1047107402899449e-08
sa(dp1344
g8
F0.9604801886161152
sg10
F0.039519800339609376
sg11
F1.1044275338821386e-08
sa(dp1345
g8
F0.9604802297067468
sg10
F0.0395197592490794
sg11
F1.104417380479072e-08
sa(dp1346
g8
F0.5431618024377716
sg10
F0.45681631422415653
sg11
F2.1883338072083163e-05
sa(dp1347
g8
F0.5234194871963814
sg10
F0.4758137191815401
sg11
F0.0007667936220786378
sa(dp1348
g8
F0.9425580569288813
sg10
F0.05744188810432002
sg11
F5.4966798766044316e-08
sa(dp1349
g8
F0.538969212439015
sg10
F0.46100591956022985
sg11
F2.486800075520725e-05
sa(dp1350
g8
F0.44921109208905985
sg10
F0.5507001607262825
sg11
F8.874718465771628e-05
sa(dp1351
g8
F0.9391884600855217
sg10
F0.06081147630119712
sg11
F6.361328126536432e-08
sa(dp1352
g8
F0.610160264875632
sg10
F0.3896240054829792
sg11
F0.000215729641388745
sa(dp1353
g8
F0.9465643700522748
sg10
F0.05343558461686239
sg11
F4.5330862851354794e-08
sa(dp1354
g8
F0.5399048120325215
sg10
F0.4600709860108214
sg11
F2.4201956657069176e-05
sa(dp1355
g8
F0.45313353670289186
sg10
F0.004982719896174727
sg11
F0.5418837434009335
sa(dp1356
g8
F0.14090260664689602
sg10
F0.8590872739440385
sg11
F1.0119409065392563e-05
sa(dp1357
g8
F0.9227180526625857
sg10
F0.07728184298808234
sg11
F1.0434933201679402e-07
sa(dp1358
g8
F0.6093259419525003
sg10
F0.38917863160784016
sg11
F0.0014954264396594634
sa(dp1359
g8
F0.2055406043702607
sg10
F0.03244891014898673
sg11
F0.7620104854807525
sa(dp1360
g8
F0.5706639044662573
sg10
F0.42933593873821546
sg11
F1.5679552728804544e-07
sa(dp1361
g8
F0.9448562122029794
sg10
F0.05514373814586773
sg11
F4.965115277055459e-08
sa(dp1362
g8
F0.9599177062784129
sg10
F0.04008228128743046
sg11
F1.2434156603445442e-08
sa(dp1363
g8
F0.8280253887337845
sg10
F0.17197336198351476
sg11
F1.249282700693808e-06
sa(dp1364
g8
F0.5854246086036748
sg10
F0.41420248198248494
sg11
F0.0003729094138403515
sa(dp1365
g8
F0.9454435068632663
sg10
F0.05455644510999977
sg11
F4.802673398435861e-08
sa(dp1366
g8
F0.9599389375971189
sg10
F0.04006105002118645
sg11
F1.2381694562806666e-08
sa(dp1367
g8
F0.960460822153916
sg10
F0.039539166753954476
sg11
F1.1092129433379673e-08
sa(dp1368
g8
F0.9031092378009462
sg10
F0.09689074879358338
sg11
F1.3405470349902338e-08
sa(dp1369
g8
F0.4120891039837852
sg10
F0.04975909163579136
sg11
F0.5381518043804234
sa(dp1370
g8
F0.13781285036343055
sg10
F0.8621762095595285
sg11
F1.0940077040998146e-05
sa(dp1371
g8
F0.8203824894165931
sg10
F0.17961739029272106
sg11
F1.202906859557418e-07
sa(dp1372
g8
F0.4361867251972867
sg10
F0.5637827942282668
sg11
F3.048057444637198e-05
sa(dp1373
g8
F0.4221384777493802
sg10
F0.5778402978904527
sg11
F2.1224360167210982e-05
sa(dp1374
g8
F0.4192570698456729
sg10
F0.5807212857939827
sg11
F2.164436034436908e-05
sa(dp1375
g8
F0.3530567423680834
sg10
F0.6468727020262158
sg11
F7.055560570066991e-05
sa(dp1376
g8
F0.3598037391701618
sg10
F0.6330552316478827
sg11
F0.007141029181955441
sa(dp1377
g8
F0.13539623804168907
sg10
F0.02693561627807398
sg11
F0.837668145680237
sa(dp1378
g8
F0.03216931722761943
sg10
F0.9643780858848507
sg11
F0.003452596887529949
sa(dp1379
g8
F0.6813430270308154
sg10
F0.3186451972465077
sg11
F1.1775722676823176e-05
sa(dp1380
g8
F0.4014505157983871
sg10
F0.0110516089895886
sg11
F0.5874978752120243
sa(dp1381
g8
F0.08932491332041781
sg10
F0.08568836751689651
sg11
F0.8249867191626856
sa(dp1382
g8
F0.050571832967025505
sg10
F0.9487907589767176
sg11
F0.0006374080562567675
sa(dp1383
g8
F0.9983811664571203
sg10
F0.0016173275539465158
sg11
F1.505988933205537e-06
sa(dp1384
g8
F0.8331681488020529
sg10
F0.16683097762603397
sg11
F8.735719131211207e-07
sa(dp1385
g8
F0.5137752545042986
sg10
F0.4861819426175774
sg11
F4.280287812403186e-05
sa(dp1386
g8
F0.3920661191569839
sg10
F0.60220000837784
sg11
F0.005733872465176084
sa(dp1387
g8
F0.9351967816226848
sg10
F0.06480314769643279
sg11
F7.068088227632562e-08
sa(dp1388
g8
F0.9595675334233669
sg10
F0.04043245327720614
sg11
F1.3299427082301504e-08
sa(dp1389
g8
F0.6909306647152273
sg10
F0.014774654244940538
sg11
F0.2942946810398322
sa(dp1390
g8
F0.8854333124506816
sg10
F0.11456665059474501
sg11
F3.6954573579025345e-08
sa(dp1391
g8
F0.9577339168176183
sg10
F0.0422660653520622
sg11
F1.7830319444188336e-08
sa(dp1392
g8
F0.9603816982505666
sg10
F0.03961829046179062
sg11
F1.1287642827267513e-08
sa(dp1393
g8
F0.9604766985764369
sg10
F0.03952329037066396
sg11
F1.1052899148738963e-08
sa(dp1394
g8
F0.6149328476025818
sg10
F0.3848817507804233
sg11
F0.0001854016169949052
sa(dp1395
g8
F0.20782359944810294
sg10
F0.032491371097828396
sg11
F0.7596850294540687
sa(dp1396
g8
F0.06045745358046319
sg10
F0.9395306686780819
sg11
F1.18777414549842e-05
sa(dp1397
g8
F0.917817451765805
sg10
F0.0821824317765733
sg11
F1.1645762164658224e-07
sa(dp1398
g8
F0.9589328329829453
sg10
F0.04106715214929836
sg11
F1.4867756471669216e-08
sa(dp1399
g8
F0.6145863408564609
sg10
F0.3852260556024397
sg11
F0.00018760354109928894
sa(dp1400
g8
F0.9467631631914559
sg10
F0.05323679195581286
sg11
F4.485273124415432e-08
sa(dp1401
g8
F0.6147931882081286
sg10
F0.3839251001116761
sg11
F0.001281711680195331
sa(dp1402
g8
F0.5395237289857973
sg10
F0.4563057896637612
sg11
F0.004170481350441417
sa(dp1403
g8
F0.9426331347955961
sg10
F0.057366812029559504
sg11
F5.317484445941527e-08
sa(dp1404
g8
F0.9598372786934555
sg10
F0.04016270867365252
sg11
F1.2632892191496147e-08
sa(dp1405
g8
F0.9604571763520925
sg10
F0.03954281254676938
sg11
F1.1101138128070884e-08
sa(dp1406
g8
F0.9604794046753611
sg10
F0.03952058427842649
sg11
F1.1046212438875785e-08
sa(dp1407
g8
F0.8281009194760254
sg10
F0.17189783675817627
sg11
F1.2437657982301552e-06
sa(dp1408
g8
F0.8918470644593348
sg10
F0.10815290758388542
sg11
F2.7956779699233717e-08
sa(dp1409
g8
F0.6023302751298323
sg10
F0.3959008311836989
sg11
F0.0017688936864687396
sa(dp1410
g8
F0.9459261795494475
sg10
F0.05407377426169917
sg11
F4.6188853406536024e-08
sa(dp1411
g8
F0.9599563817305509
sg10
F0.040043605930858345
sg11
F1.2338590769968386e-08
sa(dp1412
g8
F0.5373619389960406
sg10
F0.46263356817599616
sg11
F4.492827963238963e-06
sa(dp1413
g8
F0.5238395979999724
sg10
F0.47132345578081125
sg11
F0.004836946219216233
sa(dp1414
g8
F0.9417762537207274
sg10
F0.058223691313779566
sg11
F5.4965493104104595e-08
sa(dp1415
g8
F0.6107398035239702
sg10
F0.38904814957585876
sg11
F0.0002120469001708693
sa(dp1416
g8
F0.9465904298104588
sg10
F0.05340952492135654
sg11
F4.526818465471356e-08
sa(dp1417
g8
F0.6702380785727851
sg10
F0.014508491239486576
sg11
F0.3152534301877283
sa(dp1418
g8
F0.3215029829667554
sg10
F0.6781169681708356
sg11
F0.0003800488624090091
sa(dp1419
g8
F0.9326992981460686
sg10
F0.06730062235475295
sg11
F7.949917852153403e-08
sa(dp1420
g8
F0.4533169240847824
sg10
F0.05324867438859066
sg11
F0.4934344015266268
sa(dp1421
g8
F0.20359086093161605
sg10
F0.7959058295748767
sg11
F0.0005033094935073127
sa(dp1422
g8
F0.4516530894789094
sg10
F0.5471272783795512
sg11
F0.0012196321415394189
sa(dp1423
g8
F0.5028606075275609
sg10
F0.496250065705649
sg11
F0.0008893267667900958
sa(dp1424
g8
F0.514028097646237
sg10
F0.48515132325939275
sg11
F0.0008205790943703135
sa(dp1425
g8
F0.4432334398269201
sg10
F0.5566741802539875
sg11
F9.237991909229557e-05
sa(dp1426
g8
F0.5020764015460847
sg10
F0.4970216526455347
sg11
F0.0009019458083806229
sa(dp1427
g8
F0.4406515864265019
sg10
F0.559254258269691
sg11
F9.415530380699357e-05
sa(dp1428
g8
F0.9387728061968511
sg10
F0.06122712916552745
sg11
F6.463762138944385e-08
sa(dp1429
g8
F0.9596973856112839
sg10
F0.040302601410151934
sg11
F1.2978564058942953e-08
sa(dp1430
g8
F0.9604521590265984
sg10
F0.039547829859865866
sg11
F1.1113535827049981e-08
sa(dp1431
g8
F0.960479224793781
sg10
F0.03952076415956204
sg11
F1.1046656922233231e-08
sa(dp1432
g8
F0.6149334146393205
sg10
F0.3848811873469962
sg11
F0.00018539801368305824
sa(dp1433
g8
F0.5405633191584349
sg10
F0.45526103991113037
sg11
F0.00417564093043468
sa(dp1434
g8
F0.9426799616722167
sg10
F0.05731998527046343
sg11
F5.305731974673999e-08
sa(dp1435
g8
F0.9598389738291123
sg10
F0.040161013542184085
sg11
F1.2628703549986056e-08
sa(dp1436
g8
F0.9604572371465306
sg10
F0.03954275175248149
sg11
F1.1100987906375265e-08
sa(dp1437
g8
F0.9604794068549655
sg10
F0.039520582098827514
sg11
F1.1046207053122189e-08
sa(dp1438
g8
F0.9604802016793609
sg10
F0.039519787276396004
sg11
F1.1044243059833794e-08
sa(dp1439
g8
F0.9604802301750849
sg10
F0.039519758780742424
sg11
F1.1044172647537707e-08
sa(dp1440
g8
F0.960480231196702
sg10
F0.03951975775912796
sg11
F1.1044170123144997e-08
sa(dp1441
g8
F0.9604802312333285
sg10
F0.03951975772250146
sg11
F1.1044170032641506e-08
sa(dp1442
g8
F0.9604802312346418
sg10
F0.03951975772118834
sg11
F1.1044170029396815e-08
sa(dp1443
g8
F0.9992636036066244
sg10
F0.0007362617311130288
sg11
F1.3466226259584288e-07
sa(dp1444
g8
F0.9618561958847082
sg10
F0.03814379647119027
sg11
F7.644101532753814e-09
sa(dp1445
g8
F0.9605295433868977
sg10
F0.03947044569078148
sg11
F1.0922320805107235e-08
sa(dp1446
g8
F0.5431733641731278
sg10
F0.4568047607194825
sg11
F2.1875107389707417e-05
sa(dp1447
g8
F0.943609844358831
sg10
F0.05639010292045391
sg11
F5.272071506950867e-08
sa(dp1448
g8
F0.959872626367257
sg10
F0.04012736108719493
sg11
F1.2545548059027557e-08
sa(dp1449
g8
F0.543019359640601
sg10
F0.45695865561774124
sg11
F2.1984741657624998e-05
sa(dp1450
g8
F0.9436028054351405
sg10
F0.0563971418268032
sg11
F5.273805621741257e-08
sa(dp1451
g8
F0.6111489602756933
sg10
F0.3886415928821309
sg11
F0.00020944684217573986
sa(dp1452
g8
F0.5378598757926528
sg10
F0.4614663787198056
sg11
F0.0006737454875417189
sa(dp1453
g8
F0.9432402029172126
sg10
F0.056759743756077584
sg11
F5.332670985356922e-08
sa(dp1454
g8
F0.48748869308876863
sg10
F0.510940993321878
sg11
F0.0015703135893534235
sa(dp1455
g8
F0.9407195825904819
sg10
F0.059280358289086045
sg11
F5.912043202343517e-08
sa(dp1456
g8
F0.9014706884661965
sg10
F0.09852929601117379
sg11
F1.5522629775404463e-08
sa(dp1457
g8
F0.6017328535601486
sg10
F0.3979978626878495
sg11
F0.00026928375200204824
sa(dp1458
g8
F0.9461843833441784
sg10
F0.053815570411025866
sg11
F4.624479563774795e-08
sa(dp1459
g8
F0.9599657113493683
sg10
F0.04003427633509458
sg11
F1.2315537199911056e-08
sa(dp1460
g8
F0.6148181543635017
sg10
F0.3849957151857632
sg11
F0.0001861304507349902
sa(dp1461
g8
F0.8721551892857129
sg10
F0.1278447574147374
sg11
F5.329954949026214e-08
sa(dp1462
g8
F0.8956688961108412
sg10
F0.10433108086998015
sg11
F2.301917882271477e-08
sa(dp1463
g8
F0.5280876265348508
sg10
F0.4718797588523036
sg11
F3.261461284566706e-05
sa(dp1464
g8
F0.3950307874277066
sg10
F0.5993642803187056
sg11
F0.005604932253587925
sa(dp1465
g8
F0.3636242200897169
sg10
F0.6296571179228552
sg11
F0.006718661987427942
sa(dp1466
g8
F0.3566342205170414
sg10
F0.6363913670123004
sg11
F0.006974412470658126
sa(dp1467
g8
F0.7344181680551591
sg10
F0.26557410468037634
sg11
F7.727264464511987e-06
sa(dp1468
g8
F0.26543218884567565
sg10
F0.037346989368177784
sg11
F0.6972208217861467
sa(dp1469
g8
F0.1076178690680253
sg10
F0.8888438763250996
sg11
F0.0035382546068749706
sa(dp1470
g8
F0.1844764352993515
sg10
F0.008343796840704834
sg11
F0.8071797678599437
sa(dp1471
g8
F0.048442903772042224
sg10
F0.9515453694925675
sg11
F1.1726735390287132e-05
sa(dp1472
g8
F0.3509930391371386
sg10
F0.6488482815571145
sg11
F0.00015867930574696478
sa(dp1473
g8
F0.9987409661855036
sg10
F0.0012580852898261977
sg11
F9.485246702369791e-07
sa(dp1474
g8
F0.5009104788590746
sg10
F0.49810516993731185
sg11
F0.0009843512036136932
sa(dp1475
g8
F0.30485554063876164
sg10
F0.009841553826876005
sg11
F0.6853029055343622
sa(dp1476
g8
F0.11480839588964124
sg10
F0.8846557896984576
sg11
F0.0005358144119011917
sa(dp1477
g8
F0.6980512976999655
sg10
F0.3019379880839353
sg11
F1.071421609926525e-05
sa(dp1478
g8
F0.7914068291320733
sg10
F0.20858924739058332
sg11
F3.92347734352727e-06
sa(dp1479
g8
F0.5797462945090962
sg10
F0.4176021577975262
sg11
F0.002651547693377578
sa(dp1480
g8
F0.9447538827275199
sg10
F0.05524606860430278
sg11
F4.866817740868838e-08
sa(dp1481
g8
F0.5394818930639154
sg10
F0.46049360390675687
sg11
F2.4503029327778974e-05
sa(dp1482
g8
F0.9434409395625565
sg10
F0.056559007300613445
sg11
F5.3136830256904636e-08
sa(dp1483
g8
F0.959866514894007
sg10
F0.040133472545343565
sg11
F1.2560649373139497e-08
sa(dp1484
g8
F0.9604582248729734
sg10
F0.03954176402847938
sg11
F1.1098547256446684e-08
sa(dp1485
g8
F0.960479442266959
sg10
F0.03952054668692136
sg11
F1.1046119550878627e-08
sa(dp1486
g8
F0.9604802029489379
sg10
F0.039519786006822356
sg11
F1.1044239922737969e-08
sa(dp1487
g8
F0.614933634196843
sg10
F0.38488096918468206
sg11
F0.0001853966184750108
sa(dp1488
g8
F0.8721666480357437
sg10
F0.12783329867910803
sg11
F5.3285148142596076e-08
sa(dp1489
g8
F0.9992004253710365
sg10
F0.0007993414644460726
sg11
F2.3316451741219392e-07
sa(dp1490
g8
F0.9618539617816155
sg10
F0.03814603056880307
sg11
F7.649581325436172e-09
sa(dp1491
g8
F0.960529463350342
sg10
F0.03947052572713945
sg11
F1.0922518573661732e-08
sa(dp1492
g8
F0.9992636378704687
sg10
F0.0007362275206893987
sg11
F1.3460884175538381e-07
sa(dp1493
g8
F0.833286324765577
sg10
F0.16671281023029078
sg11
F8.650041323106889e-07
sa(dp1494
g8
F0.9557574326576823
sg10
F0.04424254462845142
sg11
F2.271386629640861e-08
sa(dp1495
g8
F0.4909719868151264
sg10
F0.05643582716421399
sg11
F0.4525921860206596
sa(dp1496
g8
F0.8166148780232637
sg10
F0.18338505462744778
sg11
F6.734928854637544e-08
sa(dp1497
g8
F0.890838834491638
sg10
F0.10916113624822607
sg11
F2.9260135873203614e-08
sa(dp1498
g8
F0.5269738079513875
sg10
F0.47299278451499577
sg11
F3.3407533616772724e-05
sa(dp1499
g8
F0.7658635139513216
sg10
F0.23413069797167066
sg11
F5.7880770077296586e-06
sa(dp1500
g8
F0.9531139680404006
sg10
F0.04688600271589147
sg11
F2.924370789977936e-08
sa(dp1501
g8
F0.5414363428798455
sg10
F0.4585405454448855
sg11
F2.3111675268708537e-05
sa(dp1502
g8
F0.9435304137212751
sg10
F0.05646953336232401
sg11
F5.2916401014481644e-08
sa(dp1503
g8
F0.9992517451727959
sg10
F0.0007481016764295023
sg11
F1.5315077470697927e-07
sa(dp1504
g8
F0.9618557765536464
sg10
F0.03814421580122349
sg11
F7.645130065165444e-09
sa(dp1505
g8
F0.9605295283644051
sg10
F0.03947046071323708
sg11
F1.092235792535361e-08
sa(dp1506
g8
F0.6149447058524864
sg10
F0.38486996788537575
sg11
F0.0001853262621379136
sa(dp1507
g8
F0.9467792355395895
sg10
F0.0532207196463358
sg11
F4.481407448930609e-08
sa(dp1508
g8
F0.9599872002828536
sg10
F0.040012787454708
sg11
F1.226243850990952e-08
sa(dp1509
g8
F0.6148229775107127
sg10
F0.3849909226878953
sg11
F0.00018609980139202239
sa(dp1510
g8
F0.20778037677463473
sg10
F0.03248779011913747
sg11
F0.7597318331062277
sa(dp1511
g8
F0.04162117953782833
sg10
F0.08603769569503013
sg11
F0.8723411247671414
sa(dp1512
g8
F0.34620304539715135
sg10
F0.6537966995177297
sg11
F2.5508511901578067e-07
sa(dp1513
g8
F0.934065463211897
sg10
F0.06593446047299467
sg11
F7.631510823921092e-08
sa(dp1514
g8
F0.8245356509746791
sg10
F0.1754628448458424
sg11
F1.504179478710715e-06
sa(dp1515
g8
F0.5846529057505091
sg10
F0.4149692826493266
sg11
F0.00037781160016420607
sa(dp1516
g8
F0.34467198028947355
sg10
F0.01033465009686742
sg11
F0.644993369613659
sa(dp1517
g8
F0.4719561046942933
sg10
F0.5280438039253397
sg11
F9.138036697232298e-08
sa(dp1518
g8
F0.8579614651666089
sg10
F0.1420384630921361
sg11
F7.174125492983407e-08
sa(dp1519
g8
F0.5194271431840557
sg10
F0.4805340768569296
sg11
F3.87799590147676e-05
sa(dp1520
g8
F0.5183282800767602
sg10
F0.4808726879596591
sg11
F0.0007990319635806583
sa(dp1521
g8
F0.9423162028851139
sg10
F0.05768374156633388
sg11
F5.5548552166077465e-08
sa(dp1522
g8
F0.9598258043446816
sg10
F0.04017418299407399
sg11
F1.266124438332656e-08
sa(dp1523
g8
F0.960456764833952
sg10
F0.03954322406389292
sg11
F1.1102154980183876e-08
sa(dp1524
g8
F0.960479389921596
sg10
F0.03952059903215497
sg11
F1.1046248895098697e-08
sa(dp1525
g8
F0.9604802010722725
sg10
F0.03951978788348297
sg11
F1.1044244559935806e-08
sa(dp1526
g8
F0.828101026557552
sg10
F0.17189772968447112
sg11
F1.243757976801154e-06
sa(dp1527
g8
F0.9555576840225658
sg10
F0.04444229277015233
sg11
F2.3207281939556504e-08
sa(dp1528
g8
F0.960303514625782
sg10
F0.039696473893385265
sg11
F1.1480832814091083e-08
sa(dp1529
g8
F0.960473895360414
sg10
F0.03952609357976014
sg11
F1.1059825832778954e-08
sa(dp1530
g8
F0.9604800040831417
sg10
F0.039519984872127156
sg11
F1.1044731315668552e-08
sa(dp1531
g8
F0.9604802230909459
sg10
F0.03951976586486382
sg11
F1.1044190152286345e-08
sa(dp1532
g8
F0.6149336387179353
sg10
F0.3848809646923197
sg11
F0.00018539658974511708
sa(dp1533
g8
F0.9467787392406739
sg10
F0.05322121594405785
sg11
F4.48152681733501e-08
sa(dp1534
g8
F0.4756538506271666
sg10
F0.055139288616070904
sg11
F0.46920686075676254
sa(dp1535
g8
F0.6179110526436289
sg10
F0.3820888779236232
sg11
F6.943274800368798e-08
sa(dp1536
g8
F0.7796217028111485
sg10
F0.2203735123741137
sg11
F4.784814737752132e-06
sa(dp1537
g8
F0.9991303075796699
sg10
F0.0008693499591998195
sg11
F3.424611303034594e-07
sa(dp1538
g8
F0.5466055768887333
sg10
F0.4533912729899186
sg11
F3.150121348128765e-06
sa(dp1539
g8
F0.9437697069997995
sg10
F0.056230240665693994
sg11
F5.233450647836117e-08
sa(dp1540
g8
F0.9992519134513512
sg10
F0.000747933660237578
sg11
F1.528884111675942e-07
sa(dp1541
g8
F0.9618557825042339
sg10
F0.03814420985065066
sg11
F7.645115469604627e-09
sa(dp1542
g8
F0.5434843576675973
sg10
F0.45649398861813384
sg11
F2.1653714268859625e-05
sa(dp1543
g8
F0.5234887707345619
sg10
F0.4757448743578697
sg11
F0.0007663549075683464
sa(dp1544
g8
F0.9425613429105258
sg10
F0.057438602130579546
sg11
F5.495889469728135e-08
sa(dp1545
g8
F0.959834679475085
sg10
F0.040165307885600784
sg11
F1.26393141280231e-08
sa(dp1546
g8
F0.9604570831334742
sg10
F0.039542905765157385
sg11
F1.110136846919032e-08
sa(dp1547
g8
F0.9604794013332837
sg10
F0.0395205876204956
sg11
F1.1046220697074157e-08
sa(dp1548
g8
F0.6149334542655228
sg10
F0.3848811479726041
sg11
F0.00018539776187298304
sa(dp1549
g8
F0.465295153931951
sg10
F0.5346276765267772
sg11
F7.716954127181061e-05
sa(dp1550
g8
F0.9399637709694147
sg10
F0.06003616732730479
sg11
F6.170328051669365e-08
sa(dp1551
g8
F0.6132455520961132
sg10
F0.3854122390999446
sg11
F0.0013422088039421907
sa(dp1552
g8
F0.9464866762549097
sg10
F0.05351327874161558
sg11
F4.5003474873812736e-08
sa(dp1553
g8
F0.959976632581537
sg10
F0.04002335512991158
sg11
F1.2288551286833357e-08
sa(dp1554
g8
F0.9604621739613158
sg10
F0.03953781494989503
sg11
F1.1088789147556314e-08
sa(dp1555
g8
F0.960479583849586
sg10
F0.039520405104644336
sg11
F1.104576970337708e-08
sa(dp1556
g8
F0.9604802080249019
sg10
F0.0395197809308708
sg11
F1.1044227380144314e-08
sa(dp1557
g8
F0.5374849337168488
sg10
F0.4625105913201132
sg11
F4.474963037902452e-06
sa(dp1558
g8
F0.9433535912024706
sg10
F0.05664635543542676
sg11
F5.3362102643522883e-08
sa(dp1559
g8
F0.6110931296975656
sg10
F0.38869706867733683
sg11
F0.00020980162509758285
sa(dp1560
g8
F0.4644450235983989
sg10
F0.5354772209178617
sg11
F7.775548373957436e-05
sa(dp1561
g8
F0.5080396492738372
sg10
F0.4865088131410466
sg11
F0.00545153758511616
sa(dp1562
g8
F0.3075082413150323
sg10
F0.010026840647193776
sg11
F0.6824649180377739
sa(dp1563
g8
F0.6664255597758637
sg10
F0.3335743230262304
sg11
F1.1719790582976991e-07
sa(dp1564
g8
F0.7867944872100722
sg10
F0.2132012518968978
sg11
F4.260893029919876e-06
sa(dp1565
g8
F0.9539454529355671
sg10
F0.04605451987464547
sg11
F2.7189787465615195e-08
sa(dp1566
g8
F0.5416309511494996
sg10
F0.4583460757148897
sg11
F2.2973135610763987e-05
sa(dp1567
g8
F0.5247483858554911
sg10
F0.4704509625792108
sg11
F0.004800651565298016
sa(dp1568
g8
F0.5151705245489229
sg10
F0.48404265615796405
sg11
F0.000786819293112976
sa(dp1569
g8
F0.44006669110161634
sg10
F0.004956049885908587
sg11
F0.554977259012475
sa(dp1570
g8
F0.2005119885064347
sg10
F0.031778005860555084
sg11
F0.7677100056330103
sa(dp1571
g8
F0.07812727106580847
sg10
F0.9212929856120089
sg11
F0.00057974332218268
sa(dp1572
g8
F0.9187792116823202
sg10
F0.08122067454807207
sg11
F1.1376960761612088e-07
sa(dp1573
g8
F0.9589681147596054
sg10
F0.04103187045981862
sg11
F1.4780576122873977e-08
sa(dp1574
g8
F0.5428073511241843
sg10
F0.45717051320744106
sg11
F2.2135668374574718e-05
sa(dp1575
g8
F0.3239186331862846
sg10
F0.010054617949881205
sg11
F0.6660267488638341
sa(dp1576
g8
F0.12329621620098356
sg10
F0.8761743884481035
sg11
F0.0005293953509130088
sa(dp1577
g8
F0.699538524454251
sg10
F0.3004508695766286
sg11
F1.060596912035466e-05
sa(dp1578
g8
F0.4838859554183359
sg10
F0.5160499713369667
sg11
F6.407324469733617e-05
sa(dp1579
g8
F0.5107298933833131
sg10
F0.48842296039107463
sg11
F0.0008471462256121865
sa(dp1580
g8
F0.9988970219891481
sg10
F0.0011022768023764712
sg11
F7.012084754154e-07
sa(dp1581
g8
F0.5465498598466526
sg10
F0.45344698199999595
sg11
F3.158153351381256e-06
sa(dp1582
g8
F0.8655327340837
sg10
F0.1344672039596532
sg11
F6.19566467653911e-08
sa(dp1583
g8
F0.5154593898573969
sg10
F0.4845329359489903
sg11
F7.674193612838377e-06
sa(dp1584
g8
F0.8624074475078002
sg10
F0.13759248649988795
sg11
F6.599231206126769e-08
sa(dp1585
g8
F0.9991932267960734
sg10
F0.0008065288160314018
sg11
F2.4438789517115753e-07
sa(dp1586
g8
F0.833276896571902
sg10
F0.16672223774043635
sg11
F8.656876615766572e-07
sa(dp1587
g8
F0.8106744032695051
sg10
F0.1893230801262096
sg11
F2.5166042853327806e-06
sa(dp1588
g8
F0.8075078954114946
sg10
F0.1924893567734746
sg11
F2.747815030816464e-06
sa(dp1589
g8
F0.8900343269404709
sg10
F0.10996564276128629
sg11
F3.0298242647133e-08
sa(dp1590
g8
F0.9992134905421192
sg10
F0.0007862966634173813
sg11
F2.1279446338128635e-07
sa(dp1591
g8
F0.9992902429817863
sg10
F0.0007096638909573214
sg11
F9.312725638760744e-08
sa(dp1592
g8
F0.961857137881344
sg10
F0.038142854476865024
sg11
F7.64179101034551e-09
sa(dp1593
g8
F0.4919609798768653
sg10
F0.5066639378918552
sg11
F0.0013750822312796175
sa(dp1594
g8
F0.38646192223012144
sg10
F0.6076224278014616
sg11
F0.005915649968417032
sa(dp1595
g8
F0.4125090976331606
sg10
F0.5873805425095386
sg11
F0.00011035985730080376
sa(dp1596
g8
F0.4955653664835924
sg10
F0.5034914325366272
sg11
F0.0009432009797802706
sa(dp1597
g8
F0.9412254127892982
sg10
F0.05877452903838784
sg11
F5.817231398898823e-08
sa(dp1598
g8
F0.46660916075566666
sg10
F0.054373739201101584
sg11
F0.47901710004323184
sa(dp1599
g8
F0.2114767798957034
sg10
F0.7880247178670436
sg11
F0.0004985022372530094
sa(dp1600
g8
F0.9266853053636961
sg10
F0.07331460034573374
sg11
F9.429057028010426e-08
sa(dp1601
g8
F0.5352714984646765
sg10
F0.46470100116950214
sg11
F2.750036582135623e-05
sa(dp1602
g8
F0.9432478248875583
sg10
F0.056752121499852655
sg11
F5.361258909326911e-08
sa(dp1603
g8
F0.9016813206782269
sg10
F0.09831866407130023
sg11
F1.525047287456846e-08
sa(dp1604
g8
F0.8201268749430767
sg10
F0.17987129884575465
sg11
F1.8262111686368043e-06
sa(dp1605
g8
F0.5836784074156371
sg10
F0.415937590554353
sg11
F0.00038400203000971974
sa(dp1606
g8
F0.9453637410598995
sg10
F0.0546362107215144
sg11
F4.821858617333869e-08
sa(dp1607
g8
F0.9599360543820807
sg10
F0.04006393322910031
sg11
F1.238881892482355e-08
sa(dp1608
g8
F0.6148114979371999
sg10
F0.3850023293129014
sg11
F0.0001861727498985334
sa(dp1609
g8
F0.9467732616910322
sg10
F0.05322669348052536
sg11
F4.4828442620040444e-08
sa(dp1610
g8
F0.9599869845131273
sg10
F0.0400130032239011
sg11
F1.2262971672237658e-08
sa(dp1611
g8
F0.9604625451946753
sg10
F0.039537443717452825
sg11
F1.1087871838235431e-08
sa(dp1612
g8
F0.9604795971590204
sg10
F0.039520391795242686
sg11
F1.1045736816062291e-08
sa(dp1613
g8
F0.9604802085020664
sg10
F0.03951978045370743
sg11
F1.104422620108142e-08
sa(dp1614
g8
F0.9604802304196898
sg10
F0.03951975853613819
sg11
F1.1044172043124639e-08
sa(dp1615
g8
F0.9604802312054714
sg10
F0.0395197577503585
sg11
F1.104417010147583e-08
sa(dp1616
g8
F0.960480231233643
sg10
F0.03951975772218707
sg11
F1.1044170031864636e-08
sa(dp1617
g8
F0.6924277528344654
sg10
F0.014793910874405273
sg11
F0.29277833629112937
sa(dp1618
g8
F0.8859425706195048
sg10
F0.11405739261244219
sg11
F3.676805301180676e-08
sa(dp1619
g8
F0.9577529366868335
sg10
F0.04224704552984522
sg11
F1.7783321306964966e-08
sa(dp1620
g8
F0.9603823811545403
sg10
F0.039617607559504185
sg11
F1.128595538683569e-08
sa(dp1621
g8
F0.9604767230609308
sg10
F0.03952326588623043
sg11
F1.1052838648102359e-08
sa(dp1622
g8
F0.960480105460968
sg10
F0.03951988349455129
sg11
F1.1044480813329043e-08
sa(dp1623
g8
F0.9604802267255025
sg10
F0.0395197622303163
sg11
F1.1044181171378614e-08
sa(dp1624
g8
F0.9604802310730288
sg10
F0.03951975788280066
sg11
F1.1044170428738234e-08
sa(dp1625
g8
F0.9604802312288947
sg10
F0.03951975772693532
sg11
F1.1044170043597511e-08
sa(dp1626
g8
F0.9604802312344828
sg10
F0.0395197577213473
sg11
F1.1044170029789605e-08
sa(dp1627
g8
F0.9604802312346831
sg10
F0.03951975772114696
sg11
F1.1044170029294569e-08
sa(dp1628
g8
F0.9604802312346903
sg10
F0.03951975772113978
sg11
F1.1044170029276824e-08
sa(dp1629
g8
F0.9604802312346905
sg10
F0.039519757721139526
sg11
F1.1044170029276184e-08
sa(dp1630
g8
F0.9604802312346905
sg10
F0.03951975772113952
sg11
F1.1044170029276164e-08
sa(dp1631
g8
F0.9604802312346905
sg10
F0.03951975772113952
sg11
F1.1044170029276163e-08
sa(dp1632
g8
F0.5431618027960001
sg10
F0.4568163138661828
sg11
F2.1883337817063813e-05
sa(dp1633
g8
F0.45010218404314567
sg10
F0.5498097008025842
sg11
F8.8115154269968e-05
sa(dp1634
g8
F0.9392316173536901
sg10
F0.060768319139352184
sg11
F6.350695755209738e-08
sa(dp1635
g8
F0.9597140276658563
sg10
F0.04028595939670171
sg11
F1.2937441913360096e-08
sa(dp1636
g8
F0.9604527559209529
sg10
F0.03954723296698622
sg11
F1.1112060914461878e-08
sa(dp1637
g8
F0.8280973363371789
sg10
F0.17190141963530373
sg11
F1.2440275171930975e-06
sa(dp1638
g8
F0.9555575416603662
sg10
F0.044442435132000184
sg11
F2.320763360021653e-08
sa(dp1639
g8
F0.9603035095082418
sg10
F0.03969647901091275
sg11
F1.14808454594182e-08
sa(dp1640
g8
F0.9604738951769245
sg10
F0.039526093763249205
sg11
F1.1059826286177397e-08
sa(dp1641
g8
F0.828100178682036
sg10
F0.1718985774980568
sg11
F1.2438199071673137e-06
sa(dp1642
g8
F0.9555576513130484
sg10
F0.044442325479588804
sg11
F2.320736273804426e-08
sa(dp1643
g8
F0.9603035134499625
sg10
F0.03969647506920195
sg11
F1.1480835719514962e-08
sa(dp1644
g8
F0.9604738953182549
sg10
F0.039526093621919084
sg11
F1.105982593695298e-08
sa(dp1645
g8
F0.8281001787010391
sg10
F0.1718985774790553
sg11
F1.2438199057793027e-06
sa(dp1646
g8
F0.5854411506156812
sg10
F0.4141860450524081
sg11
F0.00037280433191057104
sa(dp1647
g8
F0.9454442620896535
sg10
F0.05455568988542907
sg11
F4.8024917518787866e-08
sa(dp1648
g8
F0.9599389648949376
sg10
F0.04006102272343542
sg11
F1.238162711048742e-08
sa(dp1649
g8
F0.5430349105972213
sg10
F0.4569431157316897
sg11
F2.19736710890092e-05
sa(dp1650
g8
F0.9436035162364831
sg10
F0.05639643102721172
sg11
F5.273630508162041e-08
sa(dp1651
g8
F0.6111491195162271
sg10
F0.3886414346535128
sg11
F0.0002094458302601388
sa(dp1652
g8
F0.5378599110834204
sg10
F0.4614663436463923
sg11
F0.0006737452701872103
sa(dp1653
g8
F0.9432402045748899
sg10
F0.05675974209840416
sg11
F5.33267058633948e-08
sa(dp1654
g8
F0.95985925103065
sg10
F0.04014073639075172
sg11
F1.2578598345269203e-08
sa(dp1655
g8
F0.9604579643648719
sg10
F0.03954202453593708
sg11
F1.1099190966133537e-08
sa(dp1656
g8
F0.9604794329272178
sg10
F0.03952055602663955
sg11
F1.1046142629170213e-08
sa(dp1657
g8
F0.9604802026140931
sg10
F0.039519786341666224
sg11
F1.1044240750131741e-08
sa(dp1658
g8
F0.9604802302085965
sg10
F0.039519758747230876
sg11
F1.1044172564731216e-08
sa(dp1659
g8
F0.614933640315569
sg10
F0.38488096310483816
sg11
F0.00018539657959273597
sa(dp1660
g8
F0.9467787393123192
sg10
F0.053221215872412866
sg11
F4.4815268001031204e-08
sa(dp1661
g8
F0.9599871823596233
sg10
F0.040012805377893916
sg11
F1.2262482797823844e-08
sa(dp1662
g8
F0.9604625522896807
sg10
F0.039537436622465054
sg11
F1.1087854306636132e-08
sa(dp1663
g8
F0.6149296723189095
sg10
F0.3848849058863249
sg11
F0.00018542179476556823
sa(dp1664
g8
F0.538697950228151
sg10
F0.4606334659531711
sg11
F0.0006685838186779949
sa(dp1665
g8
F0.3219175552480873
sg10
F0.01005138989796556
sg11
F0.6680310548539472
sa(dp1666
g8
F0.6797842720884659
sg10
F0.32021561563241746
sg11
F1.1227911664332074e-07
sa(dp1667
g8
F0.949589441959479
sg10
F0.05041052008518679
sg11
F3.7955334113548206e-08
sa(dp1668
g8
F0.48035430397406403
sg10
F0.05553713853068903
sg11
F0.4641085574952469
sa(dp1669
g8
F0.810893144317207
sg10
F0.18910678625338015
sg11
F6.942941294805312e-08
sa(dp1670
g8
F0.5816413769664978
sg10
F0.41796166409848184
sg11
F0.0003969589350203791
sa(dp1671
g8
F0.4523051255707794
sg10
F0.5476780909620319
sg11
F1.6783467188551156e-05
sa(dp1672
g8
F0.9988444054773374
sg10
F0.001154806381054246
sg11
F7.881416082781873e-07
sa(dp1673
g8
F0.5521982565828377
sg10
F0.4477862937635859
sg11
F1.544965357621697e-05
sa(dp1674
g8
F0.7697242922123291
sg10
F0.2302702008082328
sg11
F5.50697943809683e-06
sasS'N'
p1675
I3
sS'states'
p1676
(lp1677
g8
ag10
ag11
asS'clist'
p1678
(lp1679
F1.8352726357815576
aF4.764156750005277
aF2.7724137077917343
aF2.077031669157633
aF2.05172695615853
aF2.0508193106243007
aF9.57036908711995
aF20.435508474643125
aF7.201731529380612
aF2.7101725016011318
aF2.0747052521822007
aF28.808973550796676
aF2.3511779816042244
aF2.061695851398306
aF2.0511767853865464
aF2.05079958566848
aF2.0507860623634797
aF9.570370258516117
aF9.383886468873323
aF2.3160348498318215
aF2.060378692844087
aF2.051129546247382
aF2.0507978920485184
aF2.0507860016444854
aF2.0507855753545132
aF2.0507855600713407
aF2.0507855595234146
aF2.050785559503771
aF2.0507855595030664
aF2.050785559503041
aF38.10672679475803
aF24.62608271108898
aF23.805658509675645
aF37.70940626009851
aF34.70150247644478
aF34.122393670556505
aF30.503092911720614
aF13.833976350928872
aF2.4017586105884385
aF32.84214407525905
aF15.915492754903337
aF22.22450818655147
aF9.591491850674137
aF25.574727803473316
aF18.405423555399768
aF15.873203131226836
aF52.951812191660146
aF16.592999858916425
aF29.495747543910642
aF34.04691803798332
aF13.732205300047058
aF25.1790311201252
aF120.75125307231868
aF2.2964671893449586
aF2.0680640867295774
aF2.051405205821883
aF26.10423406423722
aF25.541869733106783
aF18.34952075466244
aF15.32233288892548
aF14.814029259489708
aF14.986040830786699
aF6.905929818201809
aF10.856356206545385
aF6.626983987322212
aF29.39520451429219
aF25.898102209211924
aF9.19104480980837
aF2.3603980141039425
aF2.062006437928397
aF2.051187924726216
aF9.570356100199842
aF25.945921825807517
aF2.101011269625912
aF2.0525878041514494
aF32.937630836094385
aF18.248076861343108
aF5.57507386165054
aF35.188295101530294
aF27.484471997708145
aF28.237556822818476
aF13.892303352835524
aF13.878660229132844
aF9.28686961052019
aF24.376997463632588
aF14.839662991053721
aF37.18721491025893
aF16.149065105760382
aF25.939542265867907
aF13.477587495511989
aF24.68515080995838
aF16.185006900731338
aF90.08449969416256
aF15.539227417069567
aF35.06235935732005
aF9.259019132895407
aF25.347199451684123
aF15.962056127894973
aF31.239770606586386
aF8.547043172632529
aF32.91251548506272
aF26.19236937213753
aF14.840082345516445
aF9.501435885363364
aF26.967081385360324
aF9.234374895201235
aF2.3513819556776308
aF24.105301153900697
aF106.86162539983506
aF2.5753270585256103
aF9.535188701789496
aF2.2725937816618353
aF2.058784609070075
aF24.00614588032943
aF28.51903602480268
aF22.140404322462782
aF13.408155343478317
aF28.865174363773495
aF2.0299544116753285
aF2.050039080719711
aF2.050758797401849
aF2.0507846000396417
aF2.0507855251047533
aF2.050785558269807
aF38.1067267953478
aF26.44695579454199
aF33.96330312280105
aF16.40179662503839
aF30.197869575086155
aF3.6160291906791433
aF26.862869955174297
aF7.6468583039119435
aF2.6834055286808476
aF2.073723412355907
aF2.0516082478656767
aF9.570341291522828
aF2.2626537892935064
aF26.08245768949369
aF25.53426985750297
aF2.320345156565207
aF2.0607409621291812
aF2.051142538530805
aF2.0507983578482296
aF20.90076331278628
aF29.02195261654668
aF25.368799097630518
aF2.339198159737248
aF21.024624164274723
aF2.029487240308802
aF2.0500222773729053
aF14.788130124343256
aF2.311971506201842
aF26.077412710561152
aF25.960136813967516
aF2.1013326646418946
aF43.86850089943717
aF7.36144760041769
aF16.420983915468224
aF2.184008275852125
aF2.055573366000725
aF2.0509572243410754
aF44.16326282841074
aF34.57737288836074
aF8.147193358948725
aF28.153824764398582
aF2.0299086337633887
aF9.571105792249256
aF15.712651753950713
aF25.818022450967256
aF2.2920856646935728
aF21.003194465321336
aF14.838873963765081
aF2.1239130766109082
aF14.779410691224214
aF25.452935239589447
aF2.3317133390421407
aF2.0611908765616365
aF9.57000369226669
aF14.178749125013505
aF2.368359429008192
aF2.062239222551827
aF2.0511962737571587
aF9.570355806049273
aF2.2626497031304713
aF2.0584200380284696
aF2.051059304218906
aF14.788007680849743
aF15.888377054969109
aF2.1633026092552647
aF2.0548277044824217
aF14.92323720367931
aF2.1270254957413974
aF2.0535225789094333
aF2.0508836906927637
aF2.0507890776681394
aF2.0507856856348563
aF2.0507855640250665
aF2.050785559665162
aF2.0507855595088524
aF2.050785559503249
aF32.93812487489854
aF2.3159675200325873
aF2.060337234463767
aF14.924010659055176
aF2.1270540739205956
aF2.0535236064014044
aF28.81614712458555
aF26.5006848456172
aF2.437237492521538
aF2.0651022287539624
aF2.0512989631856837
aF2.05080396600597
aF2.050786219405627
aF2.050785583161597
aF14.788039999355645
aF9.34782013829253
aF2.327041838702556
aF14.755347034977142
aF14.055196896957794
aF2.380319652697026
aF9.558769131859876
aF2.2659163138598903
aF14.762642648495103
aF74.8643821364997
aF18.675565084953888
aF2.6354771567728505
aF26.0441955311024
aF20.271112352917537
aF5.270799689907931
aF2.2927079263038324
aF2.0594956506362228
aF14.923892508120552
aF9.498645927486315
aF2.2830176075357422
aF2.0591669068568086
aF2.0510860881471125
aF24.003561757539828
aF36.85430373539919
aF18.67048665172782
aF29.205267169517967
aF37.09684307627292
aF30.852472527413106
aF30.800589386532284
aF34.47946313672509
aF25.945634891151705
aF14.685817342614616
aF12.062587936513099
aF17.253203356536915
aF28.01404912452058
aF18.93975856906161
aF5.210464755365089
aF29.031914449052227
aF14.84074605167411
aF14.558884058881429
aF26.648540213179178
aF2.432496275945562
aF2.064917703040412
aF44.08117942017411
aF2.6632943943342466
aF2.0933095049549753
aF2.0523112362961595
aF2.0508402588990218
aF9.570368349074615
aF20.435498896051985
aF15.866205031440293
aF2.7113542719265404
aF2.0747453494587162
aF9.569526203984175
aF2.262883278309302
aF26.08243373463567
aF25.53426149982857
aF2.3203458155609535
aF2.060740987731883
aF2.051142539449021
aF2.0507983578811495
aF14.922671594604454
aF24.711715560992488
aF25.9952701141454
aF2.2733214678433944
aF2.058896804230499
aF32.935901503797986
aF25.446241528535502
aF2.332488395935749
aF9.560177649362931
aF2.265518713730549
aF42.93265438906549
aF7.265025675356591
aF2.480285183572019
aF40.168738504138965
aF6.381589720136807
aF9.170338891566297
aF9.29012094272661
aF9.31937659937593
aF14.000781830866782
aF9.295495003791144
aF13.979864533261383
aF2.3867461957303973
aF2.062907078173673
aF2.051220227313027
aF2.0508011431530524
aF9.570369727192677
aF25.56013182140434
aF2.3196144947061677
aF2.060714740390434
aF2.0511415981128365
aF2.050798324132331
aF2.050786017135383
aF2.050785575909887
aF2.050785560091252
aF2.050785559524128
aF2.0507855595037965
aF20.90075800365542
aF2.029479921394866
aF2.0500220141085483
aF14.788130155427575
aF2.3119715033854704
aF2.0601936643658574
aF14.78692925925723
aF2.312080314825168
aF9.561172042947579
aF9.381690977098351
aF2.3166362001473426
aF28.72692379156658
aF2.35416800750587
aF24.10659433929505
aF9.53828820757986
aF2.2717138624903406
aF2.0587523441621385
aF9.57008960025001
aF25.94659324541701
aF24.47141612741176
aF14.670496149784379
aF26.713269505801637
aF25.93293153824436
aF25.76220945378838
aF16.35704814608495
aF25.064237188287898
aF15.400035604494697
aF16.01246808148563
aF15.390154670786401
aF13.289458796995522
aF25.721371750325783
aF29.0191371170575
aF22.668777149241073
aF5.658907231961046
aF17.018485994646294
aF15.515702317966115
aF25.837253950207145
aF2.29003546179249
aF14.759344823735722
aF2.3145825238839337
aF2.0602882939274187
aF2.0511263042361207
aF2.050797775815872
aF2.050785997477359
aF9.570370260802171
aF25.9458861505776
aF21.483834760955794
aF2.029514374127176
aF2.050023253388192
aF20.9004417814531
aF14.838850046007137
aF2.1239121888364565
aF43.19594463811297
aF3.2478222827555077
aF24.775134309248433
aF14.661810875514865
aF15.928344585521245
aF2.1648361475052305
aF14.7745852150225
aF2.3131993845799044
aF21.010199898589924
aF2.029486388017383
aF2.0500222467156277
aF9.570397169197308
aF2.262638058562385
aF2.05841961118962
aF9.570101322358715
aF20.432033926174405
aF15.661923286555671
aF7.174400879550799
aF2.459791897664796
aF14.980302227802953
aF9.49676876708408
aF24.86926352325712
aF35.19803584471802
aF26.842491076709223
aF14.602963901422386
aF9.335337446620672
aF2.330732047326927
aF2.060918653326512
aF2.0511489113627768
aF2.050798586327258
aF2.0507860265354925
aF14.922669863689606
aF2.127004533748274
aF2.0535218252483696
aF2.050883663670231
aF2.050789076699336
aF2.0507856856001228
aF9.570370271790171
aF2.2626456307163414
aF41.964472626680426
aF31.556243534080348
aF15.70632053684504
aF22.13088471374145
aF33.10298109984057
aF2.3095265445118534
aF21.00864684985997
aF2.0294862962516973
aF14.790555219745736
aF9.34799000861095
aF2.326991701199748
aF2.060781231498621
aF2.0511439828386044
aF2.0507984096296066
aF9.570369823499638
aF14.179018762424565
aF2.368334694211233
aF26.071609487039765
aF2.2653303094828736
aF2.058583241395988
aF2.0510651568701697
aF2.050795583561877
aF2.0507859188815387
aF32.938124776382786
aF2.3159675238921262
aF9.56103635304607
aF14.172148326419295
aF25.33450574546006
aF22.891331723434178
aF4.466712296296093
aF15.5903744679422
aF2.1519637762035546
aF14.776102730908939
aF25.452284873197467
aF9.296887567755322
aF73.39317036866606
aF28.47586496607829
aF5.389404112588407
aF2.695389376448985
aF2.0741990497224942
aF14.785276059761943
aF23.710845095311868
aF5.724840198901044
aF16.99453096500341
aF14.325719090795626
aF9.316707671563686
aF24.269603209347196
aF33.101965638915495
aF26.36634650171909
aF32.539991652163536
aF26.56278267666309
aF21.550270837530018
aF14.839001307484407
aF15.20435602615503
aF15.255523832241883
aF24.82567578050825
aF21.36325551564092
aF20.654897997829124
aF2.0294653946012975
aF28.824299151670647
aF26.502934989876938
aF13.712426691093034
aF9.2795561867354
aF2.347375271918677
aF41.237342221599185
aF6.44394987241601
aF2.573167515395841
aF14.726513008848103
aF2.317567793613588
aF24.093349697863946
aF15.051569191742304
aF9.494398308412304
aF2.2842346199240677
aF2.0592115503339117
aF9.570073422565759
aF2.262729203031087
aF2.0584229521512567
aF2.051059408722719
aF2.050795377479664
aF2.0507859114931617
aF2.0507855721224453
aF2.050785559955466
aF2.0507855595192606
aF44.16427406877353
aF2.6591011491298615
aF2.093015001225587
aF2.0523006622660094
aF2.0508398797830876
aF2.0507875069732346
aF2.050785629322943
aF2.0507855620061943
aF2.0507855595927826
aF2.0507855595062576
aF2.050785559503155
aF2.0507855595030446
aF2.05078555950304
aF2.05078555950304
aF2.05078555950304
aF14.788040002149035
aF14.062174634065947
aF2.379652500726382
aF2.0626493939361215
aF2.0512109850488973
aF14.9227295141021
aF2.1270067376833612
aF2.0535219044879494
aF2.0508836665113677
aF14.922683569137838
aF2.127005040130256
aF2.053521843454666
aF2.0508836643230177
aF14.92268356883067
aF9.498686165785008
aF2.2830060848050695
aF2.059166484179513
aF14.78705052246906
aF2.3120693268785963
aF9.561172429963484
aF9.381691069452296
aF2.3166361748448137
aF2.0604007674450475
aF2.0511303379225887
aF2.0507979204316746
aF2.0507860026620666
aF2.0507855753909956
aF9.570370275673035
aF2.2626456296232345
aF2.05841988871152
aF2.051059298864228
aF9.570360631910127
aF9.383884170593321
aF23.610993170283805
aF4.356626623605464
aF2.219418585537889
aF42.342356508519494
aF3.2948817494600764
aF9.489459283367525
aF31.389687064676743
aF24.76928340268185
aF14.858495364478392
aF15.866137646415744
asS'logB'
p1680
(dp1681
g8
(dp1682
g16
F-2.9212348804951955
sg17
F-2.5633371230760758
sg18
F-2.2705196883974508
sg19
F-5.11102215480017
sg20
F-2.6570023729358256
sg21
F-2.394531914401664
sg22
F-2.5567896167969173
sg23
F-3.093728761473657
sg24
F-3.955377711169584
sg25
F-2.5311773915230478
sg26
F-2.3856993883549533
sg27
F-2.744681015196079
sg28
F-2.319990802883572
sg29
F-2.6363994576488694
sg30
F-3.0060044723555492
sg31
F-6.771947206302559
ssg10
(dp1683
V11
p1684
F-2.2061636400830515
sV10
p1685
F-2.7886349913133275
sV13
p1686
F-2.2366278495501097
sV12
p1687
F-4.803495959222991
sV15
p1688
F-2.3946538192158955
sV14
p1689
F-3.4340383811510673
sV1
p1690
F-4.3946466318475315
sV0
p1691
F-2.883896900512308
sV3
p1692
F-2.4577642134121223
sV2
p1693
F-2.428127950235306
sV5
p1694
F-3.4036523078985326
sV4
p1695
F-2.347181559984261
sV7
p1696
F-3.329045325183329
sV6
p1697
F-2.1769737091555577
sV9
p1698
F-3.144112388866956
sV8
p1699
F-3.626896918534498
ssg11
(dp1700
V11
p1701
F-3.776462439005156
sV10
p1702
F-2.56023877712607
sV13
p1703
F-2.2875507466486336
sV12
p1704
F-4.0011284607127555
sV15
p1705
F-2.352279906055419
sV14
p1706
F-3.184664319984376
sV1
p1707
F-4.212541507026543
sV0
p1708
F-2.2779335809252834
sV3
p1709
F-2.523757470272191
sV2
p1710
F-2.89618699908023
sV5
p1711
F-2.2244950581471348
sV4
p1712
F-2.159180925692466
sV7
p1713
F-3.3688691655609246
sV6
p1714
F-3.3780880383582845
sV9
p1715
F-2.504124323723734
sV8
p1716
F-4.078634034718041
sssS'logA'
p1717
(dp1718
g8
(dp1719
Vq1
p1720
F-0.12159375102178108
sVq3
p1721
F-2.1714793139375113
sVq2
p1722
F-7.635223578707189
ssg10
(dp1723
Vq1
p1724
F-0.051018605614936104
sVq3
p1725
F-3.3863773220688
sVq2
p1726
F-4.140933416759925
ssg11
(dp1727
Vq1
p1728
F-0.02848274252499949
sVq3
p1729
F-3.5815404521278484
sVq2
p1730
F-8.301505382807537
sssS'model'
p1731
(dp1732
VA
p1733
(dp1734
g8
(dp1735
g1720
F0.8855080321744565
sg1721
F0.11400883724062709
sg1722
F0.00048313058491640786
ssg10
(dp1736
g1724
F0.9502609901778785
sg1725
F0.033831014039701346
sg1726
F0.01590799578242019
ssg11
(dp1737
g1728
F0.9719190668704077
sg1729
F0.027832790133992855
sg1730
F0.0002481429955994003
sssVB
p1738
(dp1739
Vq1
p1740
(dp1741
g16
F0.05386712674749742
sg17
F0.077047194979542
sg18
F0.103258503890451
sg19
F0.00602991626464192
sg20
F0.07015821501075101
sg21
F0.09121536553027698
sg22
F0.07755331708317478
sg23
F0.045332604399164866
sg24
F0.01915143347300857
sg25
F0.07956528562270637
sg26
F0.09202459613648334
sg27
F0.06426879844520396
sg28
F0.0982744894421265
sg29
F0.07161867194567796
sg30
F0.0494890190022545
sg31
F0.0011454620270388422
ssVq3
p1742
(dp1743
g1684
F0.1101223079879357
sg1685
F0.061505111653083845
sg1686
F0.1068181044446883
sg1687
F0.008201026421244215
sg1688
F0.09120424661582534
sg1689
F0.032256413698180074
sg1690
F0.012343241263237551
sg1691
F0.05591643692155573
sg1692
F0.08562617897768209
sg1693
F0.08820179627603751
sg1694
F0.03325160282102376
sg1695
F0.09563833362215457
sg1696
F0.03582729215985531
sg1697
F0.11338414535406975
sg1698
F0.04310516769831538
sg1699
F0.026598594085111
ssVq2
p1744
(dp1745
g1701
F0.022903571062053995
sg1702
F0.07728628404311588
sg1703
F0.10151479306384253
sg1704
F0.018294982067217063
sg1705
F0.09515197715995265
sg1706
F0.04139213798270078
sg1707
F0.014808684096303926
sg1708
F0.10249578728310807
sg1709
F0.08015784944613936
sg1710
F0.055233424144602555
sg1711
F0.10812200017652181
sg1712
F0.11541961957709766
sg1713
F0.034428548326521306
sg1714
F0.03411261443362269
sg1715
F0.08174715069273093
sg1716
F0.016930576444468923
sssVpi
p1746
(dp1747
Vq1
p1748
F0.3333333333333333
sVq3
p1749
F0.3333333333333333
sVq2
p1750
F0.3333333333333333
sssS'pi'
p1751
(dp1752
g8
F4.570168118907158e-58
sg10
F5.273379984604131e-86
sg11
F1.0
ssS'bwk_scaled'
p1753
(lp1754
(dp1755
g8
F1.1305503625370827
sg10
F1.1150571656391908
sg11
F1.835272635781549
sa(dp1756
g8
F6.598493303732689
sg10
F4.766289433402062
sg11
F0.9847862507944264
sa(dp1757
g8
F2.8403929929247207
sg10
F2.051792013736861
sg11
F0.42442074812383473
sa(dp1758
g8
F2.1009955394944066
sg10
F1.5195578571993298
sg11
F0.324436033107287
sa(dp1759
g8
F2.0723794175375834
sg10
F1.550596827018929
sg11
F0.6091580906434755
sa(dp1760
g8
F2.013795174227517
sg10
F2.950592952329222
sg11
F8.637562730909323
sa(dp1761
g8
F2.9968255919550875
sg10
F20.07004658876002
sg11
F15.820246372813916
sa(dp1762
g8
F11.724380459941317
sg10
F12.301198082150743
sg11
F23.16647495566644
sa(dp1763
g8
F9.733488032072708
sg10
F7.035401854554121
sg11
F1.4784401340722844
sa(dp1764
g8
F2.7703209718983013
sg10
F2.03780533272215
sg11
F0.6186720626770869
sa(dp1765
g8
F2.0664390612470567
sg10
F2.267735567382272
sg11
F4.621301971803373
sa(dp1766
g8
F33.579589272555815
sg10
F24.25550415449075
sg11
F5.011335832241246
sa(dp1767
g8
F2.390384899136941
sg10
F1.7266450863859173
sg11
F0.3567421850865707
sa(dp1768
g8
F2.084982087466825
sg10
F1.506074089718976
sg11
F0.3113336624109303
sa(dp1769
g8
F2.073914856353406
sg10
F1.4989233914305047
sg11
F0.3143960674131565
sa(dp1770
g8
F2.0725791869933285
sg10
F1.5214856226477107
sg11
F0.44568465079298875
sa(dp1771
g8
F2.0463430154783664
sg10
F2.158768317769633
sg11
F4.08592712986861
sa(dp1772
g8
F9.620000046754434
sg10
F9.488163106725485
sg11
F15.616555490101781
sa(dp1773
g8
F10.76718085277372
sg10
F7.7774445290965675
sg11
F1.6068665848028365
sa(dp1774
g8
F2.3530952854843257
sg10
F1.6997084292327567
sg11
F0.351169933597613
sa(dp1775
g8
F2.0836015623669693
sg10
F1.5050453590063282
sg11
F0.31095137830369457
sa(dp1776
g8
F2.0739003032309706
sg10
F1.4980378604046132
sg11
F0.3095035871665233
sa(dp1777
g8
F2.073552497691599
sg10
F1.4977866305143022
sg11
F0.309451681879975
sa(dp1778
g8
F2.0735400282458243
sg10
F1.4977776250933432
sg11
F0.30944983001720466
sa(dp1779
g8
F2.073539579394803
sg10
F1.4977773460198185
sg11
F0.3094500153354543
sa(dp1780
g8
F2.073539513051779
sg10
F1.497778557302863
sg11
F0.3094570428808694
sa(dp1781
g8
F2.0735381090337994
sg10
F1.497812665838077
sg11
F0.30965312719550203
sa(dp1782
g8
F2.0734989630946967
sg10
F1.4987640588128963
sg11
F0.3151224636113779
sa(dp1783
g8
F2.0724070751248176
sg10
F1.5253010414436676
sg11
F0.46767738792459435
sa(dp1784
g8
F2.041951298823891
sg10
F2.2654909048252674
sg11
F4.722903059161815
sa(dp1785
g8
F45.44794629306621
sg10
F31.642603596920868
sg11
F0.15536643668955438
sa(dp1786
g8
F24.631561960776896
sg10
F19.82871449834452
sg11
F15.058364435762222
sa(dp1787
g8
F23.265204019991803
sg10
F29.030435762189164
sg11
F71.7615184374468
sa(dp1788
g8
F33.27780809783516
sg10
F41.41648046148241
sg11
F102.04450178299703
sa(dp1789
g8
F30.28865121066307
sg10
F37.17937335826388
sg11
F89.99532769045945
sa(dp1790
g8
F31.205991805708653
sg10
F35.63164854233048
sg11
F77.80874903731899
sa(dp1791
g8
F29.56749323886002
sg10
F31.133180976929943
sg11
F59.0417080502403
sa(dp1792
g8
F16.34308533197213
sg10
F12.012347462398608
sg11
F3.597373109682371
sa(dp1793
g8
F2.3897249872272326
sg10
F2.583193788062785
sg11
F5.146155304511837
sa(dp1794
g8
F35.99654403505782
sg10
F29.25391382418836
sg11
F23.550235624001125
sa(dp1795
g8
F17.128570931346374
sg10
F11.929702287931372
sg11
F0.08149273296329963
sa(dp1796
g8
F22.221411998224607
sg10
F25.727797046241083
sg11
F56.81004665484098
sa(dp1797
g8
F8.034075391245896
sg10
F12.163736182389867
sg11
F36.113998185433594
sa(dp1798
g8
F5.6281495787105795
sg10
F49.318531879426494
sg11
F39.30809738887378
sa(dp1799
g8
F4.931779960948415
sg10
F7.358604492001251
sg11
F21.949454444173004
sa(dp1800
g8
F3.622428235430926
sg10
F16.38637549908882
sg11
F11.771550860300588
sa(dp1801
g8
F21.43368121119231
sg10
F26.451494547522955
sg11
F64.47481338529614
sa(dp1802
g8
F14.247648694111385
sg10
F16.72910369628524
sg11
F38.098966007837745
sa(dp1803
g8
F26.005419375541287
sg10
F31.349065045505977
sg11
F74.07480107548587
sa(dp1804
g8
F33.14890371292131
sg10
F34.504697405609804
sg11
F63.96700168551732
sa(dp1805
g8
F16.744211654422752
sg10
F11.659935201956174
sg11
F0.06829583654223177
sa(dp1806
g8
F25.179674495170765
sg10
F24.656503991141086
sg11
F6.602245776402066
sa(dp1807
g8
F137.90980795546304
sg10
F99.61909275687401
sg11
F20.597350102698933
sa(dp1808
g8
F2.3421464349315673
sg10
F1.6931595467326088
sg11
F0.35713553862688935
sa(dp1809
g8
F2.090273039843073
sg10
F1.5437349344541778
sg11
F0.5012431346843849
sa(dp1810
g8
F2.036716065534564
sg10
F2.4080302226551966
sg11
F5.203403198201142
sa(dp1811
g8
F21.753431816819766
sg10
F32.943692542160704
sg11
F97.7074218090772
sa(dp1812
g8
F5.625096656901735
sg10
F49.01598429692212
sg11
F41.94909383080962
sa(dp1813
g8
F3.033010583820662
sg10
F27.00395561882649
sg11
F21.5349488642709
sa(dp1814
g8
F3.5352226659275714
sg10
F5.461297174292586
sg11
F16.77572540287311
sa(dp1815
g8
F2.0973159079998465
sg10
F15.043982394889692
sg11
F11.5624799895964
sa(dp1816
g8
F3.778397434501348
sg10
F5.731879113905765
sg11
F17.340436790689413
sa(dp1817
g8
F0.9645170434294088
sg10
F7.1815384014445725
sg11
F5.68778461034853
sa(dp1818
g8
F4.46835788662615
sg10
F5.192020287547745
sg11
F11.636446619477631
sa(dp1819
g8
F5.682912322690895
sg10
F6.651429612639808
sg11
F15.07778032952825
sa(dp1820
g8
F26.174282354051112
sg10
F31.064044610605876
sg11
F69.59170062441295
sa(dp1821
g8
F26.00706147675482
sg10
F25.65074294431691
sg11
F42.21888257241957
sa(dp1822
g8
F10.75664224234622
sg10
F7.769967166925876
sg11
F1.606048202587718
sa(dp1823
g8
F2.4000828605178626
sg10
F1.7344889744283791
sg11
F0.36287721296167835
sa(dp1824
g8
F2.0844806432200143
sg10
F1.5260386176969
sg11
F0.4248609559812254
sa(dp1825
g8
F2.051379730689682
sg10
F2.046529105677261
sg11
F3.456613470772615
sa(dp1826
g8
F10.53573641048068
sg10
F8.03070370184446
sg11
F3.9220996629794356
sa(dp1827
g8
F26.898190701631865
sg10
F19.44893166299513
sg11
F4.123727624067834
sa(dp1828
g8
F2.1243893285724447
sg10
F1.5777070557928863
sg11
F0.5584720554386495
sa(dp1829
g8
F2.0282927475336594
sg10
F2.641243310095308
sg11
F6.875699351752777
sa(dp1830
g8
F21.92198333128341
sg10
F45.73754688832762
sg11
F32.29133583833925
sa(dp1831
g8
F47.249396116686036
sg10
F34.83174506548413
sg11
F10.975539374159988
sa(dp1832
g8
F5.225264146222354
sg10
F5.975371814492905
sg11
F13.07896667030036
sa(dp1833
g8
F40.10348684589762
sg10
F32.2329203981492
sg11
F24.23264311302098
sa(dp1834
g8
F26.54871991812752
sg10
F32.69419309520214
sg11
F76.18980829229638
sa(dp1835
g8
F26.03832534702066
sg10
F29.97612234631593
sg11
F66.25315194055935
sa(dp1836
g8
F13.008810376338086
sg10
F14.559980321432686
sg11
F30.781373107209564
sa(dp1837
g8
F14.049425055028339
sg10
F13.750032378746264
sg11
F22.225871027098272
sa(dp1838
g8
F10.963521251945817
sg10
F7.633842866172019
sg11
F0.040912469854712225
sa(dp1839
g8
F24.380052138171493
sg10
F21.636948846093095
sg11
F26.138790933650956
sa(dp1840
g8
F14.23864921330374
sg10
F17.842481720739244
sg11
F44.33979703475873
sa(dp1841
g8
F32.24580578429223
sg10
F41.05166709338588
sg11
F104.06398605440987
sa(dp1842
g8
F6.126130978493177
sg10
F46.575980049105105
sg11
F36.938695112635386
sa(dp1843
g8
F11.683190178817757
sg10
F14.129626603809388
sg11
F32.34630010401823
sa(dp1844
g8
F12.625838948085505
sg10
F13.499735279248931
sg11
F25.4018115011547
sa(dp1845
g8
F24.442041812769624
sg10
F24.595774099454818
sg11
F42.436325401419296
sa(dp1846
g8
F11.908432222433783
sg10
F28.609870880448145
sg11
F17.40805321236056
sa(dp1847
g8
F88.47157026354871
sg10
F78.10343613778639
sg11
F92.54174587389782
sa(dp1848
g8
F14.067369032462983
sg10
F17.093630187152794
sg11
F40.82685000234989
sa(dp1849
g8
F33.30489792086416
sg10
F36.09794687726981
sg11
F71.76361221817463
sa(dp1850
g8
F8.726934056332711
sg10
F9.745059229936166
sg11
F19.536006819732577
sa(dp1851
g8
F22.946966608952767
sg10
F27.469384675581743
sg11
F64.30789072067596
sa(dp1852
g8
F7.675596513731133
sg10
F42.22622442560344
sg11
F31.522852772557464
sa(dp1853
g8
F17.240198155652607
sg10
F19.8113193810875
sg11
F43.66545762173977
sa(dp1854
g8
F7.8178869015054415
sg10
F8.67385264072216
sg11
F18.082909992805398
sa(dp1855
g8
F41.749471337396464
sg10
F29.0693854026075
sg11
F0.1527198370032004
sa(dp1856
g8
F26.196893905611294
sg10
F22.74094342264252
sg11
F25.24613483124842
sa(dp1857
g8
F14.600230011945975
sg10
F16.038189137101245
sg11
F32.61834607425642
sa(dp1858
g8
F8.815103389954375
sg10
F10.463722066646346
sg11
F23.446076424086638
sa(dp1859
g8
F27.087913338435943
sg10
F26.735961286379563
sg11
F44.07778746516564
sa(dp1860
g8
F10.748480623215967
sg10
F7.790432430907117
sg11
F1.7521545925582256
sa(dp1861
g8
F2.3807176258858407
sg10
F1.8837872078888427
sg11
F1.272572603630919
sa(dp1862
g8
F23.93194651567765
sg10
F25.691738584965275
sg11
F8.177461105626996
sa(dp1863
g8
F135.75255022185098
sg10
F99.32993184705167
sg11
F27.368091989031708
sa(dp1864
g8
F2.5790014555234215
sg10
F2.543755300495398
sg11
F4.187134071517351
sa(dp1865
g8
F10.726324156867895
sg10
F7.749338641800342
sg11
F1.6086275386040951
sa(dp1866
g8
F2.3066446531949265
sg10
F1.6745909448574958
sg11
F0.3913801188386951
sa(dp1867
g8
F2.073333394126142
sg10
F1.7099442671566703
sg11
F1.4960202600264834
sa(dp1868
g8
F22.87962154087153
sg10
F34.501429359973486
sg11
F102.37448644168329
sa(dp1869
g8
F9.087244606697691
sg10
F46.35470035495632
sg11
F34.26044275972204
sa(dp1870
g8
F12.123280933275403
sg10
F13.178371455125209
sg11
F26.517392214854716
sa(dp1871
g8
F18.747031814231118
sg10
F13.051341730570368
sg11
F0.058201835493680014
sa(dp1872
g8
F28.878079412327033
sg10
F20.85946768679863
sg11
F4.309691030212758
sa(dp1873
g8
F2.0517024227538574
sg10
F1.4820037552455672
sg11
F0.3061911820025514
sa(dp1874
g8
F2.0727566780926336
sg10
F1.497213551097124
sg11
F0.30934277431435114
sa(dp1875
g8
F2.0735095327074933
sg10
F1.4978048174012997
sg11
F0.3097203604656096
sa(dp1876
g8
F2.0734836978019704
sg10
F1.49910988417164
sg11
F0.31711456061291887
sa(dp1877
g8
F2.0720093099732075
sg10
F1.5349673294404487
sg11
F0.5232467686143101
sa(dp1878
g8
F2.030857529852474
sg10
F2.5351111687941326
sg11
F6.26988234684897
sa(dp1879
g8
F33.67811073046116
sg10
F42.00515425351292
sg11
F99.15872716514355
sa(dp1880
g8
F23.120998996996708
sg10
F28.120422068494396
sg11
F67.24461032445203
sa(dp1881
g8
F32.082270369766576
sg10
F34.933932707027914
sg11
F70.51033127658184
sa(dp1882
g8
F9.909700797284565
sg10
F34.55218505500239
sg11
F23.904269724053016
sa(dp1883
g8
F28.334973755416776
sg10
F25.40018072625283
sg11
F31.798554891283832
sa(dp1884
g8
F1.564272570964116
sg10
F10.474351043501372
sg11
F8.256359034885618
sa(dp1885
g8
F16.20061925370785
sg10
F16.995338269748046
sg11
F31.998245248130623
sa(dp1886
g8
F10.234013098001927
sg10
F7.392446907529668
sg11
F1.527995407338185
sa(dp1887
g8
F2.7445900578449556
sg10
F1.9834298425242545
sg11
F0.4148126216689233
sa(dp1888
g8
F2.096779055507719
sg10
F1.5344627009774168
sg11
F0.424128765462424
sa(dp1889
g8
F2.0524396005881678
sg10
F2.031431090322417
sg11
F3.370532308958348
sa(dp1890
g8
F10.661847752631761
sg10
F7.830001052064068
sg11
F2.310100132386129
sa(dp1891
g8
F2.2550574001208963
sg10
F2.3977864468481873
sg11
F4.473729921406982
sa(dp1892
g8
F26.218120879352494
sg10
F25.811623279094174
sg11
F42.136080946238884
sa(dp1893
g8
F29.358200089964885
sg10
F21.206271380860265
sg11
F4.381335829072765
sa(dp1894
g8
F2.3579047255792336
sg10
F1.703179616752833
sg11
F0.3518719807512911
sa(dp1895
g8
F2.083984419098301
sg10
F1.5052526479861847
sg11
F0.3106214374110363
sa(dp1896
g8
F2.073990793667099
sg10
F1.4961807191661913
sg11
F0.29877258912904675
sa(dp1897
g8
F2.075695381982641
sg10
F1.4457198445934083
sg11
F0.010098663295271763
sa(dp1898
g8
F20.89789479116173
sg10
F24.787625232767635
sg11
F55.50069087390751
sa(dp1899
g8
F29.23490751685532
sg10
F28.772471357080093
sg11
F46.94068054029244
sa(dp1900
g8
F29.432208924100888
sg10
F21.232113730652312
sg11
F4.238038313837455
sa(dp1901
g8
F2.381666203142368
sg10
F1.6580732672333607
sg11
F0.007397879247501519
sa(dp1902
g8
F21.02899773297983
sg10
F15.198647702224534
sg11
F3.1874818951635047
sa(dp1903
g8
F2.050290024400112
sg10
F1.5049192204575677
sg11
F0.4397522115779587
sa(dp1904
g8
F2.0458156346070293
sg10
F2.1523920543153996
sg11
F4.075394637100429
sa(dp1905
g8
F16.849617370662468
sg10
F12.337418340726973
sg11
F3.4448777512921676
sa(dp1906
g8
F2.3118627079751866
sg10
F2.3137906121139333
sg11
F3.895936286885665
sa(dp1907
g8
F28.60413818804036
sg10
F22.090324038866342
sg11
F12.253793388719147
sa(dp1908
g8
F26.498792032534165
sg10
F22.303183103235607
sg11
F21.62850124268597
sa(dp1909
g8
F1.824884243376941
sg10
F8.286339449452225
sg11
F6.020098446035706
sa(dp1910
g8
F35.70899766000837
sg10
F36.154343027630986
sg11
F63.0517512453728
sa(dp1911
g8
F8.386924132006065
sg10
F6.848031742611138
sg11
F5.6663134218163425
sa(dp1912
g8
F17.72351408197864
sg10
F12.80589828823476
sg11
F2.6656576874569464
sa(dp1913
g8
F2.212960320346585
sg10
F1.6113532728020874
sg11
F0.4021752861563527
sa(dp1914
g8
F2.064986859128408
sg10
F1.8286389198698005
sg11
F2.1918393599883537
sa(dp1915
g8
F1.6988378289062316
sg10
F10.606295492588663
sg11
F8.293130063717147
sa(dp1916
g8
F24.74139788193738
sg10
F117.98492477916321
sg11
F86.36246409254301
sa(dp1917
g8
F22.33581688343457
sg10
F23.248166739701734
sg11
F43.094514490872285
sa(dp1918
g8
F11.110172143702657
sg10
F7.734780071700456
sg11
F0.03494078100581438
sa(dp1919
g8
F28.1652955076601
sg10
F20.643853145473972
sg11
F5.87576519992809
sa(dp1920
g8
F2.0281972099338597
sg10
F2.0730318826538277
sg11
F3.6874855262704096
sa(dp1921
g8
F10.144498965720135
sg10
F8.654121565715723
sg11
F8.926575868635718
sa(dp1922
g8
F15.767695814759117
sg10
F15.518295681509912
sg11
F25.31727200833782
sa(dp1923
g8
F29.320142703454263
sg10
F21.15133928668775
sg11
F4.222287471740974
sa(dp1924
g8
F2.3313096048753676
sg10
F1.6231687498237124
sg11
F0.008089403366510354
sa(dp1925
g8
F21.006044260274134
sg10
F17.194150061104416
sg11
F14.429087189167412
sa(dp1926
g8
F15.520982503070238
sg10
F11.429562825741057
sg11
F3.536406721500176
sa(dp1927
g8
F2.112633642107641
sg10
F2.3675772497886567
sg11
F5.015816055205968
sa(dp1928
g8
F14.883877449562505
sg10
F14.655297414058643
sg11
F23.930857820454484
sa(dp1929
g8
F29.40729072280549
sg10
F21.25466761661822
sg11
F4.460962432420318
sa(dp1930
g8
F2.3682746277953575
sg10
F1.7397435055992296
sg11
F0.5159051398903374
sa(dp1931
g8
F2.055466648149179
sg10
F2.1978888711411138
sg11
F4.264552996200152
sa(dp1932
g8
F9.390925021413603
sg10
F9.851595025009388
sg11
F18.548246595421766
sa(dp1933
g8
F16.651872049996772
sg10
F12.028326740263067
sg11
F2.486203107415689
sa(dp1934
g8
F2.4084618969876477
sg10
F1.7405099792017114
sg11
F0.3639521103268016
sa(dp1935
g8
F2.084758228277588
sg10
F1.5254119505863577
sg11
F0.42027946350181095
sa(dp1936
g8
F2.0523081519087465
sg10
F2.024191922415377
sg11
F3.3316511228173367
sa(dp1937
g8
F10.7173664732644
sg10
F7.741634822814135
sg11
F1.6003973394175703
sa(dp1938
g8
F2.296533207285459
sg10
F1.6598839628259277
sg11
F0.34849611954129617
sa(dp1939
g8
F2.0804912795681916
sg10
F1.5288874593603965
sg11
F0.45629208210451516
sa(dp1940
g8
F2.0448442303681067
sg10
F2.202038239490206
sg11
F4.3557813510709105
sa(dp1941
g8
F16.14118150197223
sg10
F13.17927561087461
sg11
F10.904030875021054
sa(dp1942
g8
F16.980194678352248
sg10
F12.267330415612516
sg11
F2.545522507802339
sa(dp1943
g8
F2.1914275021507494
sg10
F1.5903016935680472
sg11
F0.3682356324923701
sa(dp1944
g8
F2.069939257797234
sg10
F1.6900690412443777
sg11
F1.3981251480666241
sa(dp1945
g8
F15.671419922590356
sg10
F11.31991751663876
sg11
F2.338762704405304
sa(dp1946
g8
F2.153602548529596
sg10
F1.5556090854195912
sg11
F0.3213981467955754
sa(dp1947
g8
F2.076409998973592
sg10
F1.4998506858994431
sg11
F0.30987812802987164
sa(dp1948
g8
F2.0736424742162396
sg10
F1.4978516245288744
sg11
F0.30946511747039274
sa(dp1949
g8
F2.0735432525089665
sg10
F1.49777999261647
sg11
F0.3094505266189254
sa(dp1950
g8
F2.0735396520847122
sg10
F1.497778473653101
sg11
F0.30945603485826195
sa(dp1951
g8
F2.0735383189175756
sg10
F1.4978076830174814
sg11
F0.30962446322319226
sa(dp1952
g8
F2.073504685825838
sg10
F1.4986249791669186
sg11
F0.31432292648453886
sa(dp1953
g8
F2.0725666932144655
sg10
F1.5214217219286026
sg11
F0.4453760847485061
sa(dp1954
g8
F2.0464034887735156
sg10
F2.1572859509482196
sg11
F4.100795860579018
sa(dp1955
g8
F37.78928110730753
sg10
F27.30084554293107
sg11
F5.665063614793729
sa(dp1956
g8
F2.352521950445357
sg10
F1.7072143070185988
sg11
F0.3953477713293628
sa(dp1957
g8
F2.0756181829126694
sg10
F1.694895168802029
sg11
F1.4030190304143269
sa(dp1958
g8
F15.670684003734824
sg10
F11.329168488380866
sg11
F2.393325608557383
sa(dp1959
g8
F2.151945270360811
sg10
F1.5919074073124149
sg11
F0.5307054512552759
sa(dp1960
g8
F2.0359367812200504
sg10
F2.478966862036481
sg11
F5.709928635526345
sa(dp1961
g8
F27.414956069923274
sg10
F30.085508792270627
sg11
F61.3097143640225
sa(dp1962
g8
F32.074569036572534
sg10
F23.168384108725117
sg11
F4.786726955198899
sa(dp1963
g8
F2.4821269084789854
sg10
F1.7929117409355029
sg11
F0.3704266069220314
sa(dp1964
g8
F2.0885571918629577
sg10
F1.508626310430784
sg11
F0.31169853145733073
sa(dp1965
g8
F2.074076468321459
sg10
F1.498202715698012
sg11
F0.3097400511339606
sa(dp1966
g8
F2.0735169627475516
sg10
F1.4988096404681108
sg11
F0.3153072329759388
sa(dp1967
g8
F2.07237146442813
sg10
F1.5261838022853653
sg11
F0.47274941000323145
sa(dp1968
g8
F2.0409387845349385
sg10
F2.2900993984195988
sg11
F4.861573552588391
sa(dp1969
g8
F14.852340554471743
sg10
F14.71112280634648
sg11
F24.449417782959298
sa(dp1970
g8
F10.692468548476453
sg10
F7.879723539015649
sg11
F2.4689440674274175
sa(dp1971
g8
F2.3089482488332265
sg10
F2.6239344884248625
sg11
F5.684445949043143
sa(dp1972
g8
F14.409482465855913
sg10
F15.158950592962231
sg11
F28.697965362877262
sa(dp1973
g8
F16.490759190602954
sg10
F12.070212466567869
sg11
F3.3466552337592126
sa(dp1974
g8
F2.381311247235673
sg10
F2.365003558726123
sg11
F3.954483900934302
sa(dp1975
g8
F10.609105317153928
sg10
F7.9175472617265665
sg11
F3.004425969788939
sa(dp1976
g8
F2.2175049976498356
sg10
F3.123474617906869
sg11
F8.833450075158114
sa(dp1977
g8
F6.7247981728116635
sg10
F24.19515725031108
sg11
F16.606186629763574
sa(dp1978
g8
F48.0165912555563
sg10
F50.853789744743736
sg11
F97.53579946647295
sa(dp1979
g8
F24.090421078448326
sg10
F17.787603412445478
sg11
F5.754702009356833
sa(dp1980
g8
F2.5998013638352213
sg10
F3.061427831630095
sg11
F6.900110213534595
sa(dp1981
g8
F20.77293278220907
sg10
F34.30840857837765
sg11
F23.14336056476203
sa(dp1982
g8
F59.146759530163166
sg10
F42.7237615069438
sg11
F8.828897085235251
sa(dp1983
g8
F5.983713929464985
sg10
F4.3232113301979656
sg11
F0.8985974831231696
sa(dp1984
g8
F2.327750128171019
sg10
F1.6922816645256797
sg11
F0.40819797884539627
sa(dp1985
g8
F2.0716715678593216
sg10
F1.7678985843832922
sg11
F1.8262269913730005
sa(dp1986
g8
F14.959123996834045
sg10
F14.75419029118216
sg11
F24.28418000997981
sa(dp1987
g8
F10.736843790951067
sg10
F7.755712695233137
sg11
F1.60335352002379
sa(dp1988
g8
F2.3180740066435437
sg10
F1.6755045610810084
sg11
F0.3520520607180235
sa(dp1989
g8
F2.0812209076024977
sg10
F1.530711604781764
sg11
F0.4636502848643895
sa(dp1990
g8
F2.043441023269848
sg10
F2.236794541493429
sg11
F4.5567323085229905
sa(dp1991
g8
F15.25817474126471
sg10
F105.51845462397803
sg11
F83.2990950056869
sa(dp1992
g8
F22.790055678345325
sg10
F24.57813886356269
sg11
F48.759075104151954
sa(dp1993
g8
F22.469428115405783
sg10
F18.063316738526563
sg11
F13.597656663121796
sa(dp1994
g8
F28.029335064710665
sg10
F34.5761696576031
sg11
F84.23114077233781
sa(dp1995
g8
F33.82476901296694
sg10
F39.62551982785853
sg11
F89.94445492640452
sa(dp1996
g8
F27.76888361772786
sg10
F33.103477298447395
sg11
F77.03812355766074
sa(dp1997
g8
F26.238566652938378
sg10
F34.09203414978071
sg11
F88.47144694379756
sa(dp1998
g8
F25.32964059677517
sg10
F39.46399710587509
sg11
F120.19316618124505
sa(dp1999
g8
F4.857696348412016
sg10
F37.884534060313676
sg11
F30.0818117868188
sa(dp2000
g8
F5.495522321412504
sg10
F6.905365173534635
sg11
F16.42147203350605
sa(dp2001
g8
F9.614719709398202
sg10
F12.079559016422696
sg11
F30.13006410093834
sa(dp2002
g8
F5.879153088774515
sg10
F41.573186175123595
sg11
F32.888488142517794
sa(dp2003
g8
F8.5623704016202
sg10
F52.07626512134293
sg11
F40.85317684240497
sa(dp2004
g8
F12.811978445011361
sg10
F12.538921350765532
sg11
F20.268071734535006
sa(dp2005
g8
F7.326262794132668
sg10
F5.10117218174981
sg11
F0.0269702809269315
sa(dp2006
g8
F29.037821763307917
sg10
F25.385359984975103
sg11
F28.979931601345456
sa(dp2007
g8
F14.486512882478712
sg10
F16.60970342106928
sg11
F36.48350666932793
sa(dp2008
g8
F13.898398577969694
sg10
F15.255399508618495
sg11
F31.096595224093548
sa(dp2009
g8
F32.173609488986955
sg10
F23.258441023146396
sg11
F4.9049961847300265
sa(dp2010
g8
F2.474445727574398
sg10
F1.8271111454368787
sg11
F0.5914248587401737
sa(dp2011
g8
F2.050141803084746
sg10
F2.4155886953098107
sg11
F0.9644160979949331
sa(dp2012
g8
F59.12773370911089
sg10
F42.70973386931168
sg11
F8.82446636631205
sa(dp2013
g8
F2.75079180193174
sg10
F1.9870676232245374
sg11
F0.41103284292285863
sa(dp2014
g8
F2.1180844095673264
sg10
F1.5319197767360744
sg11
F0.32708769653805997
sa(dp2015
g8
F2.072986965854782
sg10
F1.551114043009763
sg11
F0.6096867337890121
sa(dp2016
g8
F2.0137448069870123
sg10
F2.952314906883888
sg11
F8.647348887457875
sa(dp2017
g8
F2.9827061156027064
sg10
F20.092579526886023
sg11
F15.842352888877011
sa(dp2018
g8
F11.580137440009766
sg10
F12.208385516929724
sg11
F23.20988986646276
sa(dp2019
g8
F21.457379475369557
sg10
F15.506580544581086
sg11
F3.2430314352261513
sa(dp2020
g8
F2.7724588820386695
sg10
F2.0289380196474225
sg11
F0.5608027989686359
sa(dp2021
g8
F2.075617832470293
sg10
F2.054372073163654
sg11
F3.40859578411672
sa(dp2022
g8
F10.662010866769519
sg10
F7.830120849132539
sg11
F2.31013551320241
sa(dp2023
g8
F2.2552839765230304
sg10
F2.3980274060866176
sg11
F4.474179624659562
sa(dp2024
g8
F26.2180952735159
sg10
F25.811599929407944
sg11
F42.13604867640646
sa(dp2025
g8
F29.358195759628753
sg10
F21.206274486391102
sg11
F4.381370020390266
sa(dp2026
g8
F2.3579046115760933
sg10
F1.7031934986512762
sg11
F0.3519500071618901
sa(dp2027
g8
F2.083970463906329
sg10
F1.5055868198907603
sg11
F0.3125433122507885
sa(dp2028
g8
F2.073608737587024
sg10
F1.5054605058202404
sg11
F0.3521208162084864
sa(dp2029
g8
F2.065046664663601
sg10
F1.7045180748817463
sg11
F1.4978657745640833
sa(dp2030
g8
F15.497883494302787
sg10
F12.151697383406699
sg11
F7.662127687658284
sa(dp2031
g8
F24.752764612406576
sg10
F24.373214279101166
sg11
F39.801252703472805
sa(dp2032
g8
F29.248512791633058
sg10
F21.142002314267074
sg11
F4.448581719041929
sa(dp2033
g8
F2.306167981246934
sg10
F1.698730610225967
sg11
F0.5281451238434112
sa(dp2034
g8
F2.048505004342342
sg10
F2.3080162056221636
sg11
F4.934528255959794
sa(dp2035
g8
F33.11956366217064
sg10
F32.72237026842221
sg11
F53.783304584266794
sa(dp2036
g8
F29.239297219740678
sg10
F21.42920128677845
sg11
F6.089507863604774
sa(dp2037
g8
F2.3297340517843854
sg10
F2.377038518069256
sg11
F4.212890539527972
sa(dp2038
g8
F10.169130659645973
sg10
F8.604771852895963
sg11
F8.555755297887156
sa(dp2039
g8
F1.8911213185211468
sg10
F8.901054228436351
sg11
F6.502754074333943
sa(dp2040
g8
F33.56319542987366
sg10
F34.71131922233695
sg11
F63.2307597435672
sa(dp2041
g8
F7.789721000714437
sg10
F7.015332341340738
sg11
F8.923166105051344
sa(dp2042
g8
F1.777681327586939
sg10
F12.217454484529288
sg11
F9.642924983529749
sa(dp2043
g8
F25.913518997381278
sg10
F27.86109683696735
sg11
F54.59314393789605
sa(dp2044
g8
F6.015882175017951
sg10
F6.47114698343023
sg11
F12.690960127163745
sa(dp2045
g8
F8.783206642884906
sg10
F9.468800974397306
sg11
F18.642645074345463
sa(dp2046
g8
F8.88821807329486
sg10
F9.679271070924813
sg11
F19.39365626552458
sa(dp2047
g8
F8.715503468377149
sg10
F9.938344354066054
sg11
F21.645710006526635
sa(dp2048
g8
F13.479521874628869
sg10
F14.413500272515334
sg11
F27.966406390717367
sa(dp2049
g8
F9.066484464060927
sg10
F9.511206824739537
sg11
F17.9072562523386
sa(dp2050
g8
F16.55143866824282
sg10
F11.955589341304279
sg11
F2.4701445553044787
sa(dp2051
g8
F2.4280229306916294
sg10
F1.7538675029099615
sg11
F0.36255693964219526
sa(dp2052
g8
F2.0862182750617886
sg10
F1.5078145715562759
sg11
F0.31625492671475797
sa(dp2053
g8
F2.073020675870493
sg10
F1.5217785331693559
sg11
F0.44560528663317106
sa(dp2054
g8
F2.0463926915644155
sg10
F2.157939854257743
sg11
F4.081321507077956
sa(dp2055
g8
F9.626732364801912
sg10
F9.477475290968883
sg11
F15.471466976624123
sa(dp2056
g8
F29.378292496350017
sg10
F21.220785958199524
sg11
F4.384341377416652
sa(dp2057
g8
F2.3571309582964854
sg10
F1.7026235118213635
sg11
F0.351772207105173
sa(dp2058
g8
F2.0839540976159916
sg10
F1.505300005355801
sg11
F0.31100398974069027
sa(dp2059
g8
F2.0739129420976967
sg10
F1.498046989704275
sg11
F0.30950547270245377
sa(dp2060
g8
F2.073552950945746
sg10
F1.4977869546380191
sg11
F0.309451731220284
sa(dp2061
g8
F2.073540048140913
sg10
F1.4977775481216238
sg11
F0.30944932249095897
sa(dp2062
g8
F2.073539681782784
sg10
F1.497774872182739
sg11
F0.309435791491424
sa(dp2063
g8
F2.073542352711293
sg10
F1.497709543423644
sg11
F0.3090602981006716
sa(dp2064
g8
F2.073617314412029
sg10
F1.4958876773913239
sg11
F0.29858681754978306
sa(dp2065
g8
F2.075708220203688
sg10
F1.445070805307107
sg11
F0.006447490516587573
sa(dp2066
g8
F20.90502780583642
sg10
F15.108972506376332
sg11
F3.1682647315307633
sa(dp2067
g8
F2.0502904181237507
sg10
F1.504710629689019
sg11
F0.4385849080910914
sa(dp2068
g8
F2.0460502216626075
sg10
F2.1466766668172794
sg11
F4.0426407581954855
sa(dp2069
g8
F16.933011993606037
sg10
F12.238298282229515
sg11
F2.5667005020470066
sa(dp2070
g8
F2.3471755491237394
sg10
F1.7228825131886334
sg11
F0.5036995822240785
sa(dp2071
g8
F2.0558473755062345
sg10
F2.1641590877657726
sg11
F4.1021355817467855
sa(dp2072
g8
F16.83215699380722
sg10
F12.357053396563257
sg11
F3.6224951370284257
sa(dp2073
g8
F2.3048229745877147
sg10
F2.4335035825437803
sg11
F4.613216550758451
sa(dp2074
g8
F9.596752957028539
sg10
F9.50186972174529
sg11
F15.778071347225932
sa(dp2075
g8
F10.69172820751568
sg10
F7.86499218472681
sg11
F2.3894916989568924
sa(dp2076
g8
F2.3037851545470014
sg10
F2.5301937384703956
sg11
F5.16150257258235
sa(dp2077
g8
F33.483564132300764
sg10
F24.260271922184874
sg11
F5.411300414675815
sa(dp2078
g8
F2.384670417038381
sg10
F1.87012665848395
sg11
F1.1808565369057733
sa(dp2079
g8
F24.138946646620763
sg10
F23.81059211239236
sg11
F39.199141535607254
sa(dp2080
g8
F10.724418645760407
sg10
F7.750334340051026
sg11
F1.6216003860765338
sa(dp2081
g8
F2.304937346636981
sg10
F1.6875807142528911
sg11
F0.4706149097898948
sa(dp2082
g8
F2.058797700752337
sg10
F2.057664316729652
sg11
F3.4894258987282405
sa(dp2083
g8
F10.506686799577075
sg10
F8.076943577877707
sg11
F4.293463941039901
sa(dp2084
g8
F26.628755040528183
sg10
F21.292899159408382
sg11
F15.476888377449823
sa(dp2085
g8
F24.023361630175078
sg10
F28.31789739579845
sg11
F64.8143191158452
sa(dp2086
g8
F13.091616048423942
sg10
F16.435754188783037
sg11
F39.12295736698859
sa(dp2087
g8
F22.921181519780152
sg10
F28.819791201395198
sg11
F68.71514078752332
sa(dp2088
g8
F21.952023847097173
sg10
F27.797871495692554
sg11
F66.60795526288638
sa(dp2089
g8
F21.33319903082799
sg10
F27.736672035709375
sg11
F72.07517697468586
sa(dp2090
g8
F5.433270430531707
sg10
F46.56504076316599
sg11
F37.09202186996605
sa(dp2091
g8
F7.900364289001244
sg10
F11.375579850750995
sg11
F32.331768986600096
sa(dp2092
g8
F3.1058507064014074
sg10
F16.899722104069124
sg11
F12.598320636377295
sa(dp2093
g8
F7.2971534067802555
sg10
F8.312211459874367
sg11
F18.08390201373933
sa(dp2094
g8
F14.811956465645855
sg10
F15.419427882533663
sg11
F28.591691102156368
sa(dp2095
g8
F16.548684036887625
sg10
F11.529613739724597
sg11
F0.09976808494592046
sa(dp2096
g8
F25.705352088048617
sg10
F38.37298113815266
sg11
F112.89814189754512
sa(dp2097
g8
F10.419059135595926
sg10
F47.712723911211945
sg11
F34.709932891195066
sa(dp2098
g8
F14.687163209233294
sg10
F14.943335484714888
sg11
F26.330325294687988
sa(dp2099
g8
F6.625327783659949
sg10
F5.5337839693365
sg11
F5.169606118075907
sa(dp2100
g8
F17.805353692364815
sg10
F15.199370287701841
sg11
F15.722930275663657
sa(dp2101
g8
F15.553491799109207
sg10
F15.372141838650279
sg11
F25.2822655295621
sa(dp2102
g8
F29.135698646575488
sg10
F21.382592469243754
sg11
F6.23178210265917
sa(dp2103
g8
F2.283846404817366
sg10
F2.395871545213015
sg11
F4.51083374144215
sa(dp2104
g8
F16.92365452854234
sg10
F12.22444287481572
sg11
F2.525644522372882
sa(dp2105
g8
F2.3515126271183493
sg10
F1.6985662850082768
sg11
F0.3509396404075749
sa(dp2106
g8
F2.083505670232092
sg10
F1.5050021775262596
sg11
F0.31108284688856314
sa(dp2107
g8
F2.073867949065805
sg10
F1.4987386939244831
sg11
F0.31354619160506336
sa(dp2108
g8
F2.0727453339207647
sg10
F1.5174002865277412
sg11
F0.4222065716495944
sa(dp2109
g8
F2.051029964793242
sg10
F2.0448562786955296
sg11
F3.4488236465232798
sa(dp2110
g8
F10.54607396609703
sg10
F8.014249270758501
sg11
F3.7899488675359385
sa(dp2111
g8
F26.9942944174989
sg10
F18.792934960886964
sg11
F0.083802759364833
sa(dp2112
g8
F21.488609086351573
sg10
F15.521119566930524
sg11
F3.2028753142446975
sa(dp2113
g8
F2.051315267111749
sg10
F1.4798041759835896
sg11
F0.2954033174915739
sa(dp2114
g8
F2.074899633034587
sg10
F1.4446481579431625
sg11
F0.007223205641499341
sa(dp2115
g8
F20.903189354117774
sg10
F17.172360860029354
sg11
F14.707070467860072
sa(dp2116
g8
F15.465405943138443
sg10
F11.707163810625048
sg11
F5.303958369000116
sa(dp2117
g8
F2.0577662083206185
sg10
F3.552842335736763
sg11
F2.4199103478248984
sa(dp2118
g8
F71.3176927439581
sg10
F51.691400404571844
sg11
F11.630135384600303
sa(dp2119
g8
F3.376894738591224
sg10
F2.673062299114865
sg11
F1.8108235600033016
sa(dp2120
g8
F24.5677113118239
sg10
F26.467858106489437
sg11
F52.396713573636134
sa(dp2121
g8
F16.0416407729157
sg10
F13.124765385307603
sg11
F10.986321970277455
sa(dp2122
g8
F16.986789516451296
sg10
F12.466375733312361
sg11
F3.632308764799407
sa(dp2123
g8
F2.1598981728663476
sg10
F2.265215599481193
sg11
F4.262524369804721
sa(dp2124
g8
F16.9389331940469
sg10
F12.21958419670669
sg11
F2.4390912153067705
sa(dp2125
g8
F2.353578587670919
sg10
F1.6385190408558257
sg11
F0.007309898638650125
sa(dp2126
g8
F21.014562624919254
sg10
F15.186485479448905
sg11
F3.1756292247971665
sa(dp2127
g8
F2.050470643898176
sg10
F1.5003415371671127
sg11
F0.41346624401040766
sa(dp2128
g8
F2.05111143311791
sg10
F2.0235161028920112
sg11
F3.3324523450488086
sa(dp2129
g8
F10.713412571391109
sg10
F7.747902251925942
sg11
F1.6507964147248375
sa(dp2130
g8
F2.293575188830051
sg10
F1.7122779620330424
sg11
F0.6528158172747274
sa(dp2131
g8
F2.0247094438230615
sg10
F2.867192426113626
sg11
F8.129690452075797
sa(dp2132
g8
F3.7763620717689492
sg10
F18.819812937599426
sg11
F15.314371933120661
sa(dp2133
g8
F18.376604389569867
sg10
F30.46174201002968
sg11
F20.565284723302327
sa(dp2134
g8
F66.65612449552378
sg10
F48.16122420322016
sg11
F10.023528366462031
sa(dp2135
g8
F8.726097767986294
sg10
F6.352737568068389
sg11
F1.5796109421491087
sa(dp2136
g8
F2.479090869338665
sg10
F2.1863914324452516
sg11
F2.5810162138316137
sa(dp2137
g8
F14.452619193960794
sg10
F17.459766579975003
sg11
F41.310199629613614
sa(dp2138
g8
F6.910794393810387
sg10
F13.14202260461922
sg11
F7.456231881696899
sa(dp2139
g8
F40.45122916222491
sg10
F31.081038426740545
sg11
F16.443031983932915
sa(dp2140
g8
F39.46924929526842
sg10
F31.38050397441404
sg11
F21.934375210035103
sa(dp2141
g8
F26.388676108778967
sg10
F29.58367239553771
sg11
F62.71050945530149
sa(dp2142
g8
F14.6994109668558
sg10
F14.497963448593909
sg11
F23.86217953790833
sa(dp2143
g8
F10.782379000403266
sg10
F7.788422648323683
sg11
F1.6091350523555592
sa(dp2144
g8
F2.3686714214176163
sg10
F1.7109598874489205
sg11
F0.3534965278254549
sa(dp2145
g8
F2.0841676514887983
sg10
F1.5054632702123196
sg11
F0.311086208104908
sa(dp2146
g8
F2.0739106142373784
sg10
F1.4982953516922812
sg11
F0.31090256904138847
sa(dp2147
g8
F2.0732745839305546
sg10
F1.5045590507621553
sg11
F0.34838185575149394
sa(dp2148
g8
F2.065768173016349
sg10
F1.6866634288232418
sg11
F1.3953078478253216
sa(dp2149
g8
F15.670663689105291
sg10
F11.319371528400623
sg11
F2.3386513045429913
sa(dp2150
g8
F2.153580459789952
sg10
F1.5555941304344718
sg11
F0.3214004410714121
sa(dp2151
g8
F2.076408128693964
sg10
F1.4998762375352377
sg11
F0.3100282022102743
sa(dp2152
g8
F2.073612496757017
sg10
F1.4985793588114615
sg11
F0.31364882502078967
sa(dp2153
g8
F2.072708058147942
sg10
F1.5180782086266316
sg11
F0.4261402637202649
sa(dp2154
g8
F2.050243968725114
sg10
F2.063951040047816
sg11
F3.5556180703400564
sa(dp2155
g8
F10.390840240613228
sg10
F8.261314109938848
sg11
F5.774264969199204
sa(dp2156
g8
F2.0525817454520423
sg10
F5.999574960570861
sg11
F4.4408911071116055
sa(dp2157
g8
F58.87889854343553
sg10
F45.327538128286626
sg11
F24.42242551231119
sa(dp2158
g8
F33.98898272815627
sg10
F27.622039018167257
sg11
F22.234825701714573
sa(dp2159
g8
F16.832557644837067
sg10
F11.722338605312993
sg11
F0.07344460361813814
sa(dp2160
g8
F22.129841024724836
sg10
F23.32164501109528
sg11
F44.30540773314194
sa(dp2161
g8
F37.889210320037904
sg10
F27.33292629708678
sg11
F5.455860245336696
sa(dp2162
g8
F2.349666562509456
sg10
F1.6358176630186458
sg11
F0.007420375146742225
sa(dp2163
g8
F21.012791985647475
sg10
F15.473991383429308
sg11
F4.789326901893084
sa(dp2164
g8
F2.020156599155745
sg10
F2.2647461679167358
sg11
F4.8007357611430574
sa(dp2165
g8
F14.883464245453984
sg10
F14.679496787877323
sg11
F24.160974177411664
sa(dp2166
g8
F10.778916845561628
sg10
F7.785927879525476
sg11
F1.6086521549673198
sa(dp2167
g8
F2.364704448692295
sg10
F1.7081314204720461
sg11
F0.35311124550631867
sa(dp2168
g8
F2.0839865497625287
sg10
F1.506241795865606
sg11
F0.3161413068513536
sa(dp2169
g8
F2.0728962602464165
sg10
F1.5228036711782758
sg11
F0.45181827585486994
sa(dp2170
g8
F2.045146399916467
sg10
F2.188160097216953
sg11
F4.25024806232615
sa(dp2171
g8
F9.381185571371939
sg10
F9.868246345601127
sg11
F18.67872073309515
sa(dp2172
g8
F16.555331134596063
sg10
F12.112441233429607
sg11
F3.331626162223461
sa(dp2173
g8
F2.3705411682586206
sg10
F2.3337872755386626
sg11
F3.8097818373181798
sa(dp2174
g8
F29.233498314825532
sg10
F21.116197528586945
sg11
F4.362735870234855
sa(dp2175
g8
F2.299498807815925
sg10
F1.660995410242045
sg11
F0.3431783680328336
sa(dp2176
g8
F2.081716805288747
sg10
F1.503715734257609
sg11
F0.3108477673300197
sa(dp2177
g8
F2.073797464777229
sg10
F1.498846916130013
sg11
F0.31442504710744074
sa(dp2178
g8
F2.072565671452062
sg10
F1.5217092245918435
sg11
F0.44698685289322304
sa(dp2179
g8
F2.046082725559117
sg10
F2.1650907267096002
sg11
F4.14563468839818
sa(dp2180
g8
F37.53237108575883
sg10
F27.59937554732943
sg11
F8.332282507342908
sa(dp2181
g8
F2.304136943053705
sg10
F2.5129841729520703
sg11
F5.0480672090384555
sa(dp2182
g8
F9.03761067221747
sg10
F10.376775597766898
sg11
F22.842078538774967
sa(dp2183
g8
F13.415999130695415
sg10
F14.825633538211635
sg11
F30.419052976889436
sa(dp2184
g8
F22.77980230354868
sg10
F28.153698135363477
sg11
F11.82064807674249
sa(dp2185
g8
F53.26433490725612
sg10
F38.65777232550816
sg11
F8.974079526336258
sa(dp2186
g8
F4.754181124339244
sg10
F3.89239820411985
sg11
F3.2709173396451963
sa(dp2187
g8
F16.513720660308067
sg10
F12.183106328973473
sg11
F3.8883291423206536
sa(dp2188
g8
F2.1362314493087142
sg10
F2.477831674770754
sg11
F5.53905723713587
sa(dp2189
g8
F13.762538029207713
sg10
F15.972891030814703
sg11
F33.70223967706687
sa(dp2190
g8
F21.168545661297717
sg10
F29.641645995946448
sg11
F83.15200756986458
sa(dp2191
g8
F3.4011371293921373
sg10
F15.568318467711237
sg11
F11.427968020362268
sa(dp2192
g8
F33.43311342228959
sg10
F144.8570201342102
sg11
F104.44113017661816
sa(dp2193
g8
F19.250612078930835
sg10
F18.99186186188594
sg11
F31.277908043958202
sa(dp2194
g8
F7.238635883617644
sg10
F5.235274396908469
sg11
F1.117158424447814
sa(dp2195
g8
F2.7517599599238505
sg10
F2.0577203945019202
sg11
F0.802133356723963
sa(dp2196
g8
F2.036406246933401
sg10
F2.957463591127684
sg11
F8.60963053255692
sa(dp2197
g8
F5.5402681498693465
sg10
F25.761858227213008
sg11
F18.785694395412875
sa(dp2198
g8
F15.183322098349516
sg10
F15.588061115013979
sg11
F27.98078633731642
sa(dp2199
g8
F6.456087924534748
sg10
F5.621579928659126
sg11
F6.3178307747119336
sa(dp2200
g8
F16.406473917372804
sg10
F18.3629312670137
sg11
F38.821742023415645
sa(dp2201
g8
F14.48417872194391
sg10
F14.17606917071128
sg11
F22.916620944356488
sa(dp2202
g8
F10.949463509601367
sg10
F7.625456701309347
sg11
F0.04863896191302267
sa(dp2203
g8
F24.267587635793504
sg10
F26.078880770807828
sg11
F51.40238313964338
sa(dp2204
g8
F36.57426578078157
sg10
F28.916819365916083
sg11
F19.42018467393317
sa(dp2205
g8
F26.135783967513554
sg10
F27.850408786937077
sg11
F54.040743902770785
sa(dp2206
g8
F36.823480208711224
sg10
F27.983405131924933
sg11
F13.234606619115917
sa(dp2207
g8
F27.721336029232816
sg10
F19.301170371296624
sg11
F0.09761210320049332
sa(dp2208
g8
F21.553191733190253
sg10
F17.933179687586307
sg11
F16.431697717337514
sa(dp2209
g8
F15.269769195623983
sg10
F12.686042749087065
sg11
F11.534861117526216
sa(dp2210
g8
F15.734794044914912
sg10
F12.9330945667395
sg11
F11.107938788768116
sa(dp2211
g8
F15.994694660912927
sg10
F12.154780160057896
sg11
F5.7478854498220775
sa(dp2212
g8
F25.68381213126668
sg10
F17.880142245158158
sg11
F0.07718868282257425
sa(dp2213
g8
F21.36836455122551
sg10
F14.876536226710183
sg11
F0.0678403451008978
sa(dp2214
g8
F20.658699223949405
sg10
F15.304350207825927
sg11
F5.2178489514409385
sa(dp2215
g8
F2.010408287848794
sg10
F2.510032056956886
sg11
F5.940668067507005
sa(dp2216
g8
F25.798490620101184
sg10
F31.641250496334134
sg11
F73.426772791782
sa(dp2217
g8
F24.352179277208208
sg10
F27.551844641916254
sg11
F59.27095856863461
sa(dp2218
g8
F13.473265391620899
sg10
F13.878250770375374
sg11
F25.078644577302025
sa(dp2219
g8
F9.85409414866407
sg10
F8.712001551643848
sg11
F10.379831340543419
sa(dp2220
g8
F1.799178978423404
sg10
F11.12627864096988
sg11
F8.736069764139044
sa(dp2221
g8
F31.55818602554357
sg10
F31.230845058508912
sg11
F51.80162816477342
sa(dp2222
g8
F8.157644994829605
sg10
F5.987029370704531
sg11
F1.7457226887745543
sa(dp2223
g8
F2.56384132550139
sg10
F2.6910459118125867
sg11
F5.071906460378625
sa(dp2224
g8
F16.89227890247282
sg10
F12.232561357817644
sg11
F2.6929966474714373
sa(dp2225
g8
F2.3477794857309777
sg10
F1.815436023330286
sg11
F1.0186218682680728
sa(dp2226
g8
F24.445745814394684
sg10
F20.86152225200245
sg11
F21.551177693651525
sa(dp2227
g8
F15.088482461316385
sg10
F14.88316643591764
sg11
F24.50173569689126
sa(dp2228
g8
F10.73638583252688
sg10
F7.7588051336621735
sg11
F1.6224169621450741
sa(dp2229
g8
F2.3182175817441415
sg10
F1.6962331482576116
sg11
F0.46734187746012057
sa(dp2230
g8
F2.060342775333627
sg10
F2.0321068828613202
sg11
F3.3446421126080144
sa(dp2231
g8
F10.71751715448488
sg10
F7.741571010884908
sg11
F1.5994549013212325
sa(dp2232
g8
F2.2966730184419144
sg10
F1.65895300241439
sg11
F0.3427496189323158
sa(dp2233
g8
F2.081549950669773
sg10
F1.503563422826381
sg11
F0.3106452120715444
sa(dp2234
g8
F2.0738267475083623
sg10
F1.4979847839852383
sg11
F0.3094929172569967
sa(dp2235
g8
F2.0735497993930427
sg10
F1.4977862152260595
sg11
F0.30945985113397567
sa(dp2236
g8
F2.0735382242518297
sg10
F1.497819102912754
sg11
F0.3096886548042397
sa(dp2237
g8
F2.073491894667429
sg10
F1.4989361793175933
sg11
F0.3161118912794199
sa(dp2238
g8
F2.0722095485340293
sg10
F1.5301016920539154
sg11
F0.4952770996623086
sa(dp2239
g8
F2.0364413297912405
sg10
F2.3994051348842897
sg11
F0.957936780954752
sa(dp2240
g8
F59.13744197255892
sg10
F42.716675871173834
sg11
F8.825520878284678
sa(dp2241
g8
F2.7460705418686575
sg10
F1.9835657638153055
sg11
F0.40981655770214365
sa(dp2242
g8
F2.1178591925635333
sg10
F1.529790630976252
sg11
F0.3160638995834438
sa(dp2243
g8
F2.0751284852840577
sg10
F1.498925011637317
sg11
F0.3096868779088533
sa(dp2244
g8
F2.073596529971965
sg10
F1.4978184362371505
sg11
F0.3094582528087551
sa(dp2245
g8
F2.0735416069400263
sg10
F1.4977787637509854
sg11
F0.3094500562361166
sa(dp2246
g8
F2.07353963786198
sg10
F1.4977773414314761
sg11
F0.3094497623883382
sa(dp2247
g8
F2.0735395672649335
sg10
F1.4977772904990985
sg11
F0.3094497521985613
sa(dp2248
g8
F2.0735395646650163
sg10
F1.4977772903476612
sg11
F0.3094497614599514
sa(dp2249
g8
F2.0735395626499464
sg10
F1.4977773370506093
sg11
F0.3094500303075549
sa(dp2250
g8
F2.073539508971763
sg10
F1.4977786415508516
sg11
F0.3094575295882403
sa(dp2251
g8
F2.0735380118293505
sg10
F1.497815027737123
sg11
F0.30966670528778834
sa(dp2252
g8
F2.0734962523886575
sg10
F1.4988299391415496
sg11
F0.3155011942595901
sa(dp2253
g8
F2.072331466055106
sg10
F1.5271386260913595
sg11
F0.47824123487677456
sa(dp2254
g8
F2.039842352405173
sg10
F2.316746232352487
sg11
F5.014289554542256
sa(dp2255
g8
F14.463631126936711
sg10
F15.173107190842295
sg11
F28.5672804529343
sa(dp2256
g8
F16.597215404698026
sg10
F11.988717972242775
sg11
F2.477327007366687
sa(dp2257
g8
F2.4204770930103034
sg10
F1.748672077026499
sg11
F0.3628568000394627
sa(dp2258
g8
F2.0856979529968735
sg10
F1.5135746386585334
sg11
F0.3504696726857405
sa(dp2259
g8
F2.0662066671265307
sg10
F1.6870227520733907
sg11
F1.3956112913921117
sa(dp2260
g8
F15.670731013082122
sg10
F11.31948763432154
sg11
F2.3390384611912434
sa(dp2261
g8
F2.1535711387717864
sg10
F1.555846047365388
sg11
F0.3228445926978729
sa(dp2262
g8
F2.0761290079598074
sg10
F1.506630548533228
sg11
F0.34886185941636827
sa(dp2263
g8
F2.0658688624551895
sg10
F1.6867474491893582
sg11
F1.3953859658131869
sa(dp2264
g8
F15.670665008226639
sg10
F11.319466365375124
sg11
F2.339176201362777
sa(dp2265
g8
F2.1535647985370647
sg10
F1.5559426973729469
sg11
F0.3234093996032236
sa(dp2266
g8
F2.076019669530887
sg10
F1.5092739727836977
sg11
F0.36406051419852004
sa(dp2267
g8
F2.0628381646047247
sg10
F1.7603924512732387
sg11
F1.8186189929844971
sa(dp2268
g8
F14.957597449784235
sg10
F14.754422468765085
sg11
F24.29115360210158
sa(dp2269
g8
F10.734801386154153
sg10
F7.758554664959618
sg11
F1.6271770192491133
sa(dp2270
g8
F2.316621597848029
sg10
F1.7004544165140638
sg11
F0.49713844617964326
sa(dp2271
g8
F2.0548303121579137
sg10
F2.163068854369863
sg11
F4.0999970494392795
sa(dp2272
g8
F16.832488531760326
sg10
F12.356772399926614
sg11
F3.6196357758436393
sa(dp2273
g8
F2.3049276217999513
sg10
F2.4315594635083393
sg11
F4.602242259495588
sa(dp2274
g8
F9.611107571903812
sg10
F9.47939250001273
sg11
F15.602119965602965
sa(dp2275
g8
F10.767576383215603
sg10
F7.777730238087825
sg11
F1.606925646136374
sa(dp2276
g8
F2.3537323901320275
sg10
F1.7001686646674907
sg11
F0.3512652169939882
sa(dp2277
g8
F2.0836246834000853
sg10
F1.5050629591873446
sg11
F0.3109598542434462
sa(dp2278
g8
F2.0739001353798594
sg10
F1.498062703111967
sg11
F0.3096430807269156
sa(dp2279
g8
F2.0735247080538484
sg10
F1.498462753875135
sg11
F0.3133384405161006
sa(dp2280
g8
F2.0727640891551444
sg10
F1.5166358746468824
sg11
F0.41786150767027636
sa(dp2281
g8
F2.0518964814472387
sg10
F2.0237859813349415
sg11
F3.330983317399298
sa(dp2282
g8
F10.717361877368088
sg10
F7.741633122261923
sg11
F1.6004057029051613
sa(dp2283
g8
F2.296528377433057
sg10
F1.6598901504550037
sg11
F0.348549478076719
sa(dp2284
g8
F2.080481223014163
sg10
F1.5291248711050818
sg11
F0.45765803918531417
sa(dp2285
g8
F2.044572405916833
sg10
F2.2086413943475476
sg11
F4.3638310725588125
sa(dp2286
g8
F9.216869300102081
sg10
F10.129746395419886
sg11
F20.751203187714392
sa(dp2287
g8
F8.577860327388786
sg10
F10.333992638127812
sg11
F4.2261699599895435
sa(dp2288
g8
F54.30585720140163
sg10
F39.312341468683655
sg11
F8.583194854177469
sa(dp2289
g8
F4.708861558124557
sg10
F3.6088695597865996
sg11
F1.8625568988573937
sa(dp2290
g8
F2.1116178303763817
sg10
F4.250074683084303
sg11
F2.9820295789549327
sa(dp2291
g8
F68.05371411903675
sg10
F49.99088984904876
sg11
F14.815738568386623
sa(dp2292
g8
F3.252682233501747
sg10
F3.4758327344721294
sg11
F6.736349706880996
sa(dp2293
g8
F9.307009193954997
sg10
F9.735063280951676
sg11
F18.224533338000256
sa(dp2294
g8
F37.649902312882375
sg10
F26.220585906770857
sg11
F0.16909466014443175
sa(dp2295
g8
F24.76675542419877
sg10
F26.93573772564194
sg11
F54.23339027212001
sa(dp2296
g8
F15.888837226093209
sg10
F13.587928745100664
sg11
F14.16837004336165
sa(dp2297
g8
F15.866137646415744
sg10
F15.866137646415744
sg11
F15.866137646415744
sasb.