ccopy_reg
_reconstructor
p0
(cmyhmm_scaled
MyHmmScaled
p1
c__builtin__
object
p2
Ntp3
Rp4
(dp5
S'A'
p6
(dp7
Vq1
p8
(dp9
g8
F0.731619344811107
sVq3
p10
F0.2683496192813603
sVq2
p11
F3.103590753242728e-05
ssg10
(dp12
g8
F0.8570685172469289
sg10
F0.00012201054162826465
sg11
F0.14280947221144216
ssg11
(dp13
g8
F0.7938306820551693
sg10
F0.00727932078932736
sg11
F0.1988899971555039
sssS'symbols'
p14
(lp15
V11
p16
aV10
p17
aV13
p18
aV12
p19
aV15
p20
aV14
p21
aV1
p22
aV0
p23
aV3
p24
aV2
p25
aV5
p26
aV4
p27
aV7
p28
aV6
p29
aV9
p30
aV8
p31
asS'B'
p32
(dp33
g8
(dp34
g16
F0.059093563938739914
sg17
F0.06584776949470021
sg18
F0.00021854111047249535
sg19
F0.011794789818679863
sg20
F0.17504099957827163
sg21
I0
sg22
F0.08582938838796635
sg23
F0.04962998893182998
sg24
F0.004304783857274581
sg25
F0.25592703749528356
sg26
F0.07492253577926378
sg27
F0.07435625960619659
sg28
F0.14303358361665616
sg29
F7.583846646782369e-07
sg30
I0
sg31
I0
ssg10
(dp35
g16
F0.241919474080061
sg17
F0.0012790088817546041
sg18
F1.354055331244603e-08
sg19
F1.6855071598161564e-34
sg20
F0.34925577854418277
sg21
I0
sg22
F0.0005345186311087927
sg23
F5.071702679489105e-05
sg24
F0.19949051077510113
sg25
F0.0636762771885968
sg26
F0.05987299361654637
sg27
F0.00040616206337359994
sg28
F0.037336996283109984
sg29
F0.04617754936881611
sg30
I0
sg31
I0
ssg11
(dp36
g16
F1.2595594430475043e-09
sg17
F1.0094442967668476e-09
sg18
F0.40173689088952985
sg19
F0.012093871586578448
sg20
F7.848267445839527e-09
sg21
I0
sg22
F0.5861686113179657
sg23
F1.3565799382559376e-07
sg24
F1.5658153844773048e-16
sg25
F8.856316224386706e-12
sg26
F7.331945465972255e-14
sg27
F4.690024307153279e-07
sg28
F1.1419300751677217e-08
sg29
F3.034227605561926e-31
sg30
I0
sg31
I0
sssS'bwk'
p37
(lp38
(dp39
a(dp40
a(dp41
a(dp42
a(dp43
a(dp44
a(dp45
a(dp46
a(dp47
a(dp48
a(dp49
a(dp50
a(dp51
a(dp52
a(dp53
a(dp54
a(dp55
a(dp56
a(dp57
a(dp58
a(dp59
a(dp60
a(dp61
a(dp62
a(dp63
a(dp64
a(dp65
a(dp66
a(dp67
a(dp68
a(dp69
a(dp70
a(dp71
a(dp72
a(dp73
a(dp74
a(dp75
a(dp76
a(dp77
a(dp78
a(dp79
a(dp80
a(dp81
a(dp82
a(dp83
a(dp84
a(dp85
a(dp86
a(dp87
a(dp88
a(dp89
a(dp90
a(dp91
a(dp92
a(dp93
a(dp94
a(dp95
a(dp96
a(dp97
a(dp98
a(dp99
a(dp100
a(dp101
a(dp102
a(dp103
a(dp104
a(dp105
a(dp106
a(dp107
a(dp108
a(dp109
a(dp110
a(dp111
a(dp112
a(dp113
a(dp114
a(dp115
a(dp116
a(dp117
a(dp118
a(dp119
a(dp120
a(dp121
a(dp122
a(dp123
a(dp124
a(dp125
a(dp126
a(dp127
a(dp128
a(dp129
a(dp130
a(dp131
a(dp132
a(dp133
a(dp134
a(dp135
a(dp136
a(dp137
a(dp138
a(dp139
a(dp140
a(dp141
a(dp142
a(dp143
a(dp144
a(dp145
a(dp146
a(dp147
a(dp148
a(dp149
a(dp150
a(dp151
a(dp152
a(dp153
a(dp154
a(dp155
a(dp156
a(dp157
a(dp158
a(dp159
a(dp160
a(dp161
a(dp162
a(dp163
a(dp164
a(dp165
a(dp166
a(dp167
a(dp168
a(dp169
a(dp170
a(dp171
a(dp172
a(dp173
a(dp174
a(dp175
a(dp176
a(dp177
a(dp178
a(dp179
a(dp180
a(dp181
a(dp182
a(dp183
a(dp184
a(dp185
a(dp186
a(dp187
a(dp188
a(dp189
a(dp190
a(dp191
a(dp192
a(dp193
a(dp194
a(dp195
a(dp196
a(dp197
a(dp198
a(dp199
a(dp200
a(dp201
a(dp202
a(dp203
a(dp204
a(dp205
a(dp206
a(dp207
a(dp208
a(dp209
a(dp210
a(dp211
a(dp212
a(dp213
a(dp214
a(dp215
a(dp216
a(dp217
a(dp218
a(dp219
a(dp220
a(dp221
a(dp222
a(dp223
a(dp224
a(dp225
a(dp226
a(dp227
a(dp228
a(dp229
a(dp230
a(dp231
a(dp232
a(dp233
a(dp234
a(dp235
a(dp236
a(dp237
a(dp238
a(dp239
a(dp240
a(dp241
a(dp242
a(dp243
a(dp244
a(dp245
a(dp246
a(dp247
a(dp248
a(dp249
a(dp250
a(dp251
a(dp252
a(dp253
a(dp254
a(dp255
a(dp256
a(dp257
a(dp258
a(dp259
a(dp260
a(dp261
a(dp262
a(dp263
a(dp264
a(dp265
a(dp266
a(dp267
a(dp268
a(dp269
a(dp270
a(dp271
a(dp272
a(dp273
a(dp274
a(dp275
a(dp276
a(dp277
a(dp278
a(dp279
a(dp280
a(dp281
a(dp282
a(dp283
a(dp284
a(dp285
a(dp286
a(dp287
a(dp288
a(dp289
a(dp290
a(dp291
a(dp292
a(dp293
a(dp294
a(dp295
a(dp296
a(dp297
a(dp298
a(dp299
a(dp300
a(dp301
a(dp302
a(dp303
a(dp304
a(dp305
a(dp306
a(dp307
a(dp308
a(dp309
a(dp310
a(dp311
a(dp312
a(dp313
a(dp314
a(dp315
a(dp316
a(dp317
a(dp318
a(dp319
a(dp320
a(dp321
a(dp322
a(dp323
a(dp324
a(dp325
a(dp326
a(dp327
a(dp328
a(dp329
a(dp330
a(dp331
a(dp332
a(dp333
a(dp334
a(dp335
a(dp336
a(dp337
a(dp338
a(dp339
a(dp340
a(dp341
a(dp342
a(dp343
a(dp344
a(dp345
a(dp346
a(dp347
a(dp348
a(dp349
a(dp350
a(dp351
a(dp352
a(dp353
a(dp354
a(dp355
a(dp356
a(dp357
a(dp358
a(dp359
g8
I1
sg10
I1
sg11
I1
sasS'fwd'
p360
(lp361
(dp362
g8
F3.5978090991085286e-47
sg10
F4.473606421699654e-85
sg11
F0.5884262567120708
sa(dp363
a(dp364
a(dp365
a(dp366
a(dp367
a(dp368
a(dp369
a(dp370
a(dp371
a(dp372
a(dp373
a(dp374
a(dp375
a(dp376
a(dp377
a(dp378
a(dp379
a(dp380
a(dp381
a(dp382
a(dp383
a(dp384
a(dp385
a(dp386
a(dp387
a(dp388
a(dp389
a(dp390
a(dp391
a(dp392
a(dp393
a(dp394
a(dp395
a(dp396
a(dp397
a(dp398
a(dp399
a(dp400
a(dp401
a(dp402
a(dp403
a(dp404
a(dp405
a(dp406
a(dp407
a(dp408
a(dp409
a(dp410
a(dp411
a(dp412
a(dp413
a(dp414
a(dp415
a(dp416
a(dp417
a(dp418
a(dp419
a(dp420
a(dp421
a(dp422
a(dp423
a(dp424
a(dp425
a(dp426
a(dp427
a(dp428
a(dp429
a(dp430
a(dp431
a(dp432
a(dp433
a(dp434
a(dp435
a(dp436
a(dp437
a(dp438
a(dp439
a(dp440
a(dp441
a(dp442
a(dp443
a(dp444
a(dp445
a(dp446
a(dp447
a(dp448
a(dp449
a(dp450
a(dp451
a(dp452
a(dp453
a(dp454
a(dp455
a(dp456
a(dp457
a(dp458
a(dp459
a(dp460
a(dp461
a(dp462
a(dp463
a(dp464
a(dp465
a(dp466
a(dp467
a(dp468
a(dp469
a(dp470
a(dp471
a(dp472
a(dp473
a(dp474
a(dp475
a(dp476
a(dp477
a(dp478
a(dp479
a(dp480
a(dp481
a(dp482
a(dp483
a(dp484
a(dp485
a(dp486
a(dp487
a(dp488
a(dp489
a(dp490
a(dp491
a(dp492
a(dp493
a(dp494
a(dp495
a(dp496
a(dp497
a(dp498
a(dp499
a(dp500
a(dp501
a(dp502
a(dp503
a(dp504
a(dp505
a(dp506
a(dp507
a(dp508
a(dp509
a(dp510
a(dp511
a(dp512
a(dp513
a(dp514
a(dp515
a(dp516
a(dp517
a(dp518
a(dp519
a(dp520
a(dp521
a(dp522
a(dp523
a(dp524
a(dp525
a(dp526
a(dp527
a(dp528
a(dp529
a(dp530
a(dp531
a(dp532
a(dp533
a(dp534
a(dp535
a(dp536
a(dp537
a(dp538
a(dp539
a(dp540
a(dp541
a(dp542
a(dp543
a(dp544
a(dp545
a(dp546
a(dp547
a(dp548
a(dp549
a(dp550
a(dp551
a(dp552
a(dp553
a(dp554
a(dp555
a(dp556
a(dp557
a(dp558
a(dp559
a(dp560
a(dp561
a(dp562
a(dp563
a(dp564
a(dp565
a(dp566
a(dp567
a(dp568
a(dp569
a(dp570
a(dp571
a(dp572
a(dp573
a(dp574
a(dp575
a(dp576
a(dp577
a(dp578
a(dp579
a(dp580
a(dp581
a(dp582
a(dp583
a(dp584
a(dp585
a(dp586
a(dp587
a(dp588
a(dp589
a(dp590
a(dp591
a(dp592
a(dp593
a(dp594
a(dp595
a(dp596
a(dp597
a(dp598
a(dp599
a(dp600
a(dp601
a(dp602
a(dp603
a(dp604
a(dp605
a(dp606
a(dp607
a(dp608
a(dp609
a(dp610
a(dp611
a(dp612
a(dp613
a(dp614
a(dp615
a(dp616
a(dp617
a(dp618
a(dp619
a(dp620
a(dp621
a(dp622
a(dp623
a(dp624
a(dp625
a(dp626
a(dp627
a(dp628
a(dp629
a(dp630
a(dp631
a(dp632
a(dp633
a(dp634
a(dp635
a(dp636
a(dp637
a(dp638
a(dp639
a(dp640
a(dp641
a(dp642
a(dp643
a(dp644
a(dp645
a(dp646
a(dp647
a(dp648
a(dp649
a(dp650
a(dp651
a(dp652
a(dp653
a(dp654
a(dp655
a(dp656
a(dp657
a(dp658
a(dp659
a(dp660
a(dp661
a(dp662
a(dp663
a(dp664
a(dp665
a(dp666
a(dp667
a(dp668
a(dp669
a(dp670
a(dp671
a(dp672
a(dp673
a(dp674
a(dp675
a(dp676
a(dp677
a(dp678
a(dp679
a(dp680
a(dp681
a(dp682
asS'logpi'
p683
(dp684
g8
F-1.0986122886681098
sg10
F-1.0986122886681098
sg11
F-1.0986122886681098
ssS'M'
p685
I16
sS'fwd_scaled'
p686
(lp687
(dp688
g8
F6.114290547148393e-47
sg10
F7.602662815722518e-85
sg11
F1.0
sa(dp689
g8
F0.004957058614810434
sg10
F5.129471201092744e-09
sg11
F0.9950429362557184
sa(dp690
g8
F0.9999768799764263
sg10
F2.2534852304673498e-05
sg11
F5.851712691980541e-07
sa(dp691
g8
F0.9999245696264405
sg10
F4.919566565615157e-30
sg11
F7.543037355961762e-05
sa(dp692
g8
F0.06046839197160829
sg10
F0.9395316080283919
sg11
F3.1728007066177997e-19
sa(dp693
g8
F0.007892830269631015
sg10
F1.4366448162241617e-08
sg11
F0.9921071553639208
sa(dp694
g8
F0.9963733987339659
sg10
F0.0036265860542785406
sg11
F1.5211755603872743e-08
sa(dp695
g8
F0.9919946290064747
sg10
F0.002723109767819369
sg11
F0.005282261225705786
sa(dp696
g8
F0.99759602999935
sg10
F0.0024039583260315306
sg11
F1.1674618394898186e-08
sa(dp697
g8
F0.9975818285976134
sg10
F0.0024181683129619507
sg11
F3.089424739895583e-09
sa(dp698
g8
F0.9125321528274329
sg10
F0.08746784717254165
sg11
F2.5388796949286428e-14
sa(dp699
g8
F0.9190169226729048
sg10
F0.08098307638609133
sg11
F9.41003895894636e-10
sa(dp700
g8
F0.7886514658416804
sg10
F0.21134853415830498
sg11
F1.46284815073643e-14
sa(dp701
g8
F0.784245747990219
sg10
F0.0016481708386851266
sg11
F0.21410608117109606
sa(dp702
g8
F0.9934956707907449
sg10
F0.006504328178021975
sg11
F1.0312330891317239e-09
sa(dp703
g8
F0.7732606205951529
sg10
F0.22673937940484587
sg11
F1.226256438083894e-15
sa(dp704
g8
F0.9937675608994779
sg10
F0.0062324383387699816
sg11
F7.617521709548723e-10
sa(dp705
g8
F0.998727306539424
sg10
F4.8782165690169396e-30
sg11
F0.001272693460576167
sa(dp706
g8
F7.661822414341672e-05
sg10
F0.9999233817758566
sg11
F1.3959610735137326e-32
sa(dp707
g8
F0.8575401675932511
sg10
F2.2199395090716016e-33
sg11
F0.1424598324067489
sa(dp708
g8
F0.7987052592265443
sg10
F0.20129474077341922
sg11
F3.643246390168571e-14
sa(dp709
g8
F0.07682749474322495
sg10
F0.923172505256775
sg11
F1.6659865387845932e-16
sa(dp710
g8
F0.9805428643078764
sg10
F0.019457135691941827
sg11
F1.8172597810545718e-13
sa(dp711
g8
F0.4155822785868197
sg10
F0.5844177213809006
sg11
F3.227953903245236e-11
sa(dp712
g8
F0.6468063141221053
sg10
F0.3531936845211207
sg11
F1.3567740402867976e-09
sa(dp713
g8
F0.6908049190383748
sg10
F0.0011646872138890616
sg11
F0.30803039374773605
sa(dp714
g8
F0.00011173846198879177
sg10
F0.9998882615380112
sg11
F4.006362736369867e-30
sa(dp715
g8
F0.9999992482809368
sg10
F3.6327300513452343e-07
sg11
F3.884460581431586e-07
sa(dp716
g8
F0.9975750706156974
sg10
F0.0024249289740395853
sg11
F4.102629974239477e-10
sa(dp717
g8
F0.9975818875158683
sg10
F0.0024181093713537246
sg11
F3.112778067016719e-09
sa(dp718
g8
F0.9110210707214962
sg10
F0.08897892924851437
sg11
F2.998946873621819e-11
sa(dp719
g8
F0.06687430872745996
sg10
F0.9331256912725401
sg11
F6.541447138934349e-17
sa(dp720
g8
F0.9615078443310542
sg10
F0.038492146756055695
sg11
F8.912890233044098e-09
sa(dp721
g8
F0.7798422206090068
sg10
F0.2201577793909863
sg11
F6.957461855258718e-15
sa(dp722
g8
F0.9981731845197033
sg10
F0.0018265779328826112
sg11
F2.3754741403554309e-07
sa(dp723
g8
F0.4105649044425491
sg10
F0.5894350955539116
sg11
F3.53927424312753e-12
sa(dp724
g8
F0.6497433533813416
sg10
F0.35025664524506056
sg11
F1.373597950188634e-09
sa(dp725
g8
F0.5306982943523294
sg10
F0.4693017049559852
sg11
F6.916855988080357e-10
sa(dp726
g8
F0.11545910411717739
sg10
F0.8845408958828218
sg11
F5.593279579514533e-16
sa(dp727
g8
F0.9997530648040093
sg10
F0.0002460712651225429
sg11
F8.639308681804958e-07
sa(dp728
g8
F0.9964374125145269
sg10
F0.0027460990817207054
sg11
F0.0008164884037522886
sa(dp729
g8
F0.9111212428158915
sg10
F0.08887875713829475
sg11
F4.581366383275396e-11
sa(dp730
g8
F0.99941385790691
sg10
F0.0005861023577278373
sg11
F3.9735362169692186e-08
sa(dp731
g8
F0.9975767173225158
sg10
F0.0024232816145378444
sg11
F1.0629463013835177e-09
sa(dp732
g8
F7.67327626582762e-05
sg10
F0.9999232672373418
sg11
F1.8168849521358618e-32
sa(dp733
g8
F0.4658413746348684
sg10
F6.758114833041082e-07
sg11
F0.5341579495536481
sa(dp734
g8
F0.9564903189704904
sg10
F0.043509672905021175
sg11
F8.12448847968602e-09
sa(dp735
g8
F0.9148944277678087
sg10
F0.08510557176088755
sg11
F4.713038468580235e-10
sa(dp736
g8
F0.9187959343552329
sg10
F0.08120406472894176
sg11
F9.158253995549005e-10
sa(dp737
g8
F0.9009818420196773
sg10
F0.002252189347601957
sg11
F0.09676596863272076
sa(dp738
g8
F0.9978235440275971
sg10
F0.0021763032748119454
sg11
F1.5269759087214316e-07
sa(dp739
g8
F0.7723734243709662
sg10
F0.22762657562903338
sg11
F4.537066278371472e-16
sa(dp740
g8
F0.9937755294014352
sg10
F0.006224469833937785
sg11
F7.64626911313011e-10
sa(dp741
g8
F0.5952015581207729
sg10
F0.4047984418343572
sg11
F4.486993461927459e-11
sa(dp742
g8
F0.9490618141865189
sg10
F0.050938185809877266
sg11
F3.6037741846871038e-12
sa(dp743
g8
F0.9921458918631207
sg10
F0.00785410796016508
sg11
F1.7671404820592689e-10
sa(dp744
g8
F0.41226976242942837
sg10
F0.5877302375572667
sg11
F1.330482737517479e-11
sa(dp745
g8
F0.6487428818919254
sg10
F0.3512571167402074
sg11
F1.3678670624776982e-09
sa(dp746
g8
F0.9443038002078632
sg10
F0.05569619978899913
sg11
F3.137686985619025e-12
sa(dp747
g8
F0.06434563692234356
sg10
F0.9356543630776564
sg11
F3.970797006352889e-17
sa(dp748
g8
F0.9998624378869087
sg10
F0.00013665481850126543
sg11
F9.072945901899924e-07
sa(dp749
g8
F0.410088997214387
sg10
F0.5899110027847991
sg11
F8.137301189948906e-13
sa(dp750
g8
F0.9968624321228627
sg10
F0.003137565998870187
sg11
F1.8782670763437593e-09
sa(dp751
g8
F0.4109347493837315
sg10
F0.5890652506106111
sg11
F5.657624456162986e-12
sa(dp752
g8
F0.9002442656893905
sg10
F0.09975573431049756
sg11
F1.1180259996841461e-13
sa(dp753
g8
F0.4396676602754241
sg10
F0.5603323395543307
sg11
F1.7024510793364367e-10
sa(dp754
g8
F0.7836663756800414
sg10
F0.2163336197124866
sg11
F4.6074720257222724e-09
sa(dp755
g8
F0.9321756965597373
sg10
F0.06782430343831311
sg11
F1.949637962067114e-12
sa(dp756
g8
F0.9153147267808945
sg10
F0.0023263508790640508
sg11
F0.08235892234004143
sa(dp757
g8
F0.4325096978497253
sg10
F0.5674903019512451
sg11
F1.9902957754661598e-10
sa(dp758
g8
F0.9990377755242869
sg10
F0.0009616441393516595
sg11
F5.803363616631577e-07
sa(dp759
g8
F0.06052756696106855
sg10
F0.9394724330389315
sg11
F8.93630706932353e-19
sa(dp760
g8
F0.9948465936566211
sg10
F0.005153396762654603
sg11
F9.580724336924027e-09
sa(dp761
g8
F0.5948998730042173
sg10
F0.4051001269582164
sg11
F3.7566377968884305e-11
sa(dp762
g8
F0.9953282785040567
sg10
F0.00467172017114206
sg11
F1.3248012747873048e-09
sa(dp763
g8
F0.912741802330563
sg10
F0.08725819766939108
sg11
F4.5925708563244657e-14
sa(dp764
g8
F0.9189973127088882
sg10
F0.08100268635234227
sg11
F9.387696173496273e-10
sa(dp765
g8
F0.6167706588451174
sg10
F0.38322934058783975
sg11
F5.670428553277155e-10
sa(dp766
g8
F0.9471487540306363
sg10
F0.05285124596594745
sg11
F3.4163739681401183e-12
sa(dp767
g8
F0.4253463488798796
sg10
F0.5746536510319105
sg11
F8.820995899652321e-11
sa(dp768
g8
F0.9967388192756071
sg10
F0.003261178890720774
sg11
F1.8336721397329116e-09
sa(dp769
g8
F0.5943673818646922
sg10
F0.4056326181106328
sg11
F2.4675111552564217e-11
sa(dp770
g8
F0.6624947557699266
sg10
F0.0010182041327690245
sg11
F0.3364870400973044
sa(dp771
g8
F0.8375152269810862
sg10
F0.16248477301882494
sg11
F8.903309563584676e-14
sa(dp772
g8
F0.9272793194819163
sg10
F0.07272068051661373
sg11
F1.4699969151982066e-12
sa(dp773
g8
F0.9994019231853245
sg10
F0.0005980441886976834
sg11
F3.262597796906705e-08
sa(dp774
g8
F0.5936190120072242
sg10
F0.40638098798621797
sg11
F6.5577030211912064e-12
sa(dp775
g8
F0.6621106806919561
sg10
F0.0010162168428956416
sg11
F0.3368731024651483
sa(dp776
g8
F0.9406625476459888
sg10
F0.059337452349680755
sg11
F4.33031731872682e-12
sa(dp777
g8
F0.9163812925233541
sg10
F0.083618706835935
sg11
F6.407110503513633e-10
sa(dp778
g8
F0.9200495919187305
sg10
F0.07995040808050773
sg11
F7.617847254017548e-13
sa(dp779
g8
F0.43353117140329384
sg10
F0.5664688284616121
sg11
F1.3509415250215919e-10
sa(dp780
g8
F0.9632440211804651
sg10
F0.03675597881454194
sg11
F4.993039800543466e-12
sa(dp781
g8
F0.9157202983447635
sg10
F0.08427970165489876
sg11
F3.376942615453542e-13
sa(dp782
g8
F0.9201104775649925
sg10
F0.07988952243423973
sg11
F7.677489800155729e-13
sa(dp783
g8
F0.06616696885394867
sg10
F0.9338330311460512
sg11
F5.822364758232583e-17
sa(dp784
g8
F0.48051265831374873
sg10
F7.658829550137595e-05
sg11
F0.5194107533907499
sa(dp785
g8
F0.11853075723430727
sg10
F0.8814692427656918
sg11
F9.207507046679701e-16
sa(dp786
g8
F0.9335033208871364
sg10
F0.0664966708779434
sg11
F8.23492020694702e-09
sa(dp787
g8
F0.9184707156584179
sg10
F0.08152928434097499
sg11
F6.071206445735651e-13
sa(dp788
g8
F0.6169261776327202
sg10
F0.38307382179647204
sg11
F5.708078536803531e-10
sa(dp789
g8
F0.7154114992730444
sg10
F0.28458849777188666
sg11
F2.9550689634304397e-09
sa(dp790
g8
F0.7325346616694488
sg10
F0.0013806061830721604
sg11
F0.26608473214747885
sa(dp791
g8
F0.48896698706006514
sg10
F0.5110330122358104
sg11
F7.041243060327943e-10
sa(dp792
g8
F0.6131910841772383
sg10
F0.0007630959735467342
sg11
F0.38604581984921493
sa(dp793
g8
F0.5872471006067753
sg10
F0.0009841613743831615
sg11
F0.41176873801884156
sa(dp794
g8
F0.9460339532974842
sg10
F0.05396604044210502
sg11
F6.260410741389414e-09
sa(dp795
g8
F0.9173131137069217
sg10
F0.08268688629258457
sg11
F4.937238569266253e-13
sa(dp796
g8
F0.6172682323211165
sg10
F0.3827317670997948
sg11
F5.790887596729868e-10
sa(dp797
g8
F0.7152879879750842
sg10
F0.28471200907283695
sg11
F2.9520788408818484e-09
sa(dp798
g8
F0.6810741979981616
sg10
F0.3189257998780515
sg11
F2.1237868014302035e-09
sa(dp799
g8
F0.5177485565221879
sg10
F0.4822514428603051
sg11
F6.175070803578189e-10
sa(dp800
g8
F0.9558905993182337
sg10
F0.04410940067749356
sg11
F4.272710720373101e-12
sa(dp801
g8
F0.42275663381524553
sg10
F0.5772433661113789
sg11
F7.337558697838533e-11
sa(dp802
g8
F0.5864778008231653
sg10
F0.0006248755050063498
sg11
F0.4128973236718284
sa(dp803
g8
F0.9470475837010591
sg10
F0.05295241629363303
sg11
F5.30783658828723e-12
sa(dp804
g8
F0.6085610175678624
sg10
F0.3914389820638444
sg11
F3.68293149283415e-10
sa(dp805
g8
F0.9952116016693662
sg10
F0.0047883970479253675
sg11
F1.2827085950080578e-09
sa(dp806
g8
F0.9127526552746605
sg10
F0.08724734472529239
sg11
F4.6988844881680706e-14
sa(dp807
g8
F0.9203837727118198
sg10
F0.07961622728738563
sg11
F7.945205220261011e-13
sa(dp808
g8
F0.9196808087377454
sg10
F0.08031919126152903
sg11
F7.256593300792324e-13
sa(dp809
g8
F0.9994075433529879
sg10
F0.0005924206731611116
sg11
F3.597385088327358e-08
sa(dp810
g8
F0.5936174338681699
sg10
F0.40638256612531065
sg11
F6.519508786737491e-12
sa(dp811
g8
F0.7238983294963053
sg10
F0.2761016673431656
sg11
F3.160529215534812e-09
sa(dp812
g8
F0.9364641303560411
sg10
F0.06353586671509207
sg11
F2.9288669075256436e-09
sa(dp813
g8
F0.611641483475472
sg10
F0.38835851608165894
sg11
F4.428690955811958e-10
sa(dp814
g8
F0.94760413544811
sg10
F0.052395864548428976
sg11
F3.4609823804703084e-12
sa(dp815
g8
F0.6083995921228889
sg10
F0.39160040751272607
sg11
F3.6438515157940183e-10
sa(dp816
g8
F0.9478918133772003
sg10
F0.05210818661931066
sg11
F3.489162835769377e-12
sa(dp817
g8
F0.9171413290642975
sg10
F0.08285867093522559
sg11
F4.768960880245125e-13
sa(dp818
g8
F0.7890420799861239
sg10
F0.2109579200138611
sg11
F1.496862509871195e-14
sa(dp819
g8
F0.07780453591715161
sg10
F0.9221954640828484
sg11
F1.7653126362734273e-16
sa(dp820
g8
F0.9933820185865486
sg10
F0.006617971999594773
sg11
F9.413856684642576e-09
sa(dp821
g8
F0.5953124476716047
sg10
F0.4046875522808405
sg11
F4.7554523028004503e-11
sa(dp822
g8
F0.7232764543545611
sg10
F0.27672354249996484
sg11
F3.1454740512344847e-09
sa(dp823
g8
F0.678385727075843
sg10
F0.32161427086545635
sg11
F2.0587007918195797e-09
sa(dp824
g8
F0.9416562599739627
sg10
F0.05834374002315878
sg11
F2.878338312314839e-12
sa(dp825
g8
F0.9177177360800609
sg10
F0.08228226391940578
sg11
F5.333599689854903e-13
sa(dp826
g8
F0.9199264740064363
sg10
F0.08007352599281403
sg11
F7.497242947799863e-13
sa(dp827
g8
F0.9197229528271318
sg10
F0.08027704717213842
sg11
F7.297876955939634e-13
sa(dp828
g8
F0.9197417083270224
sg10
F0.08025829167224605
sg11
F7.316249534416685e-13
sa(dp829
g8
F0.6165509066907842
sg10
F0.383449092747493
sg11
F5.617228053025406e-10
sa(dp830
g8
F0.7155470385897666
sg10
F0.2844529584518831
sg11
F2.9583502759406726e-09
sa(dp831
g8
F0.6809867877045428
sg10
F0.3190132101737864
sg11
F2.1216706590671543e-09
sa(dp832
g8
F0.6927854514327246
sg10
F0.3072145461599671
sg11
F2.4073080949902665e-09
sa(dp833
g8
F0.9393045151971087
sg10
F0.06069548155040268
sg11
F3.2524886554252876e-09
sa(dp834
g8
F0.9179350134230594
sg10
F0.08206498657638596
sg11
F5.546441140976197e-13
sa(dp835
g8
F0.919906455732894
sg10
F0.08009354426635826
sg11
F7.477633377072527e-13
sa(dp836
g8
F0.6165022858097781
sg10
F0.3834977136296763
sg11
F5.605457276054653e-10
sa(dp837
g8
F0.9471725878805672
sg10
F0.05282741211601412
sg11
F3.418708692756321e-12
sa(dp838
g8
F0.6085247557261061
sg10
F0.3914752439064785
sg11
F3.6741527532014645e-10
sa(dp839
g8
F0.9469447977036428
sg10
F0.05305519817336623
sg11
F4.122990970274375e-09
sa(dp840
g8
F0.9317510548798258
sg10
F0.0024113961015216744
sg11
F0.06583754901865253
sa(dp841
g8
F0.6111128213713041
sg10
F0.3888871779687525
sg11
F6.599435962952665e-10
sa(dp842
g8
F0.9476510553872889
sg10
F0.05234894460924553
sg11
F3.4655785813267025e-12
sa(dp843
g8
F0.6083859857759698
sg10
F0.3916140138599744
sg11
F3.6405575138825993e-10
sa(dp844
g8
F0.7185048778371441
sg10
F0.28149511913289843
sg11
F3.029957505196271e-09
sa(dp845
g8
F0.8312765843234838
sg10
F0.16872341567646443
sg11
F5.174609432544087e-14
sa(dp846
g8
F0.8184941412533535
sg10
F0.0018253796408007632
sg11
F0.17968047910584564
sa(dp847
g8
F0.642261401015746
sg10
F0.35773859714626993
sg11
F1.8379840919304953e-09
sa(dp848
g8
F0.9448814255342497
sg10
F0.055118574462556164
sg11
F3.1942702123843058e-12
sa(dp849
g8
F0.6091898403161382
sg10
F0.3908101593003453
sg11
F3.835165104560414e-10
sa(dp850
g8
F0.9478216989689391
sg10
F0.052178301027578505
sg11
F3.4822945440166217e-12
sa(dp851
g8
F0.9171478128198338
sg10
F0.08285218717968874
sg11
F4.775312260272866e-13
sa(dp852
g8
F0.9199789798348189
sg10
F0.08002102016442629
sg11
F7.548676791637207e-13
sa(dp853
g8
F0.6164808838303946
sg10
F0.3835191156095778
sg11
F5.600276005768277e-10
sa(dp854
g8
F0.947174488528413
sg10
F0.052825511468168114
sg11
F3.418894877083455e-12
sa(dp855
g8
F0.7828052878045416
sg10
F0.2171947121954488
sg11
F9.5376762956198e-15
sa(dp856
g8
F0.9310576189468376
sg10
F0.06894237874029116
sg11
F2.312871245081183e-09
sa(dp857
g8
F0.4301773974344649
sg10
F0.569822602449652
sg11
F1.1588311018427015e-10
sa(dp858
g8
F0.9966995673809205
sg10
F0.0033004307995679895
sg11
F1.8195115100389461e-09
sa(dp859
g8
F0.9993499323754289
sg10
F0.0006500659689544218
sg11
F1.655616878975533e-09
sa(dp860
g8
F0.4102333152111701
sg10
F0.5897666847871902
sg11
F1.6396782055769176e-12
sa(dp861
g8
F0.9968612653769061
sg10
F0.0031387327452477394
sg11
F1.8778461576194337e-09
sa(dp862
g8
F0.41093507881538127
sg10
F0.5890649211789591
sg11
F5.659511501898604e-12
sa(dp863
g8
F0.9990885651911513
sg10
F0.0009108343356404524
sg11
F6.004732081855711e-07
sa(dp864
g8
F0.772114238817374
sg10
F0.22788576118262596
sg11
F2.28049986032549e-16
sa(dp865
g8
F0.8197063905349865
sg10
F0.1802936094649719
sg11
F4.16708617344988e-14
sa(dp866
g8
F0.8088585736988607
sg10
F0.0017755230717373049
sg11
F0.1893659032294019
sa(dp867
g8
F0.9980508299852703
sg10
F0.001948876435534297
sg11
F2.93579195392405e-07
sa(dp868
g8
F0.4105994045512391
sg10
F0.5894005954450241
sg11
F3.736942682661301e-12
sa(dp869
g8
F0.9990893528682909
sg10
F0.0009100463462061774
sg11
F6.007855026871924e-07
sa(dp870
g8
F0.9975776298035286
sg10
F0.002422368771434797
sg11
F1.4250364936321475e-09
sa(dp871
g8
F0.9916828873885207
sg10
F0.008317112601799912
sg11
F9.679185628487707e-12
sa(dp872
g8
F0.9859013088840631
sg10
F0.002691581550303435
sg11
F0.011407109565633296
sa(dp873
g8
F0.7745789527078856
sg10
F0.2254210472921111
sg11
F3.397099054233838e-15
sa(dp874
g8
F0.4819579278663876
sg10
F0.5180420717211208
sg11
F4.1249166655602363e-10
sa(dp875
g8
F0.6099386918713681
sg10
F0.3900613069830426
sg11
F1.145589408317444e-09
sa(dp876
g8
F0.9468172138114734
sg10
F0.053182782080071864
sg11
F4.108454591106755e-09
sa(dp877
g8
F0.6086278517693275
sg10
F0.3913721478607613
sg11
F3.699111730157304e-10
sa(dp878
g8
F0.5485007499727294
sg10
F0.4514992492336092
sg11
F7.936613916592557e-10
sa(dp879
g8
F0.953186897423842
sg10
F0.04681310257215022
sg11
F4.00786054107832e-12
sa(dp880
g8
F0.9921067921754083
sg10
F0.007893207661983323
sg11
F1.626083291068594e-10
sa(dp881
g8
F0.41228085717564267
sg10
F0.587719142810989
sg11
F1.336838014412191e-11
sa(dp882
g8
F0.999754066230128
sg10
F0.0002456913761020632
sg11
F2.423937700084653e-07
sa(dp883
g8
F0.9108157828694003
sg10
F0.08918421712399856
sg11
F6.601109130246596e-12
sa(dp884
g8
F0.9205620886581279
sg10
F0.07943791134106001
sg11
F8.119880581735152e-13
sa(dp885
g8
F0.6163088432233749
sg10
F0.3836911562207625
sg11
F5.558626171926646e-10
sa(dp886
g8
F0.7156344853263105
sg10
F0.28436551171322233
sg11
F2.9604673005615652e-09
sa(dp887
g8
F0.6809572844066487
sg10
F0.319042713472395
sg11
F2.1209564047620984e-09
sa(dp888
g8
F0.6927956431414908
sg10
F0.3072043544509544
sg11
F2.4075548291651384e-09
sa(dp889
g8
F0.940365800944763
sg10
F0.05963419905248524
sg11
F2.751927074919377e-12
sa(dp890
g8
F0.9178369692101964
sg10
F0.08216303078925871
sg11
F5.45039849837828e-13
sa(dp891
g8
F0.9994089050588186
sg10
F0.0005910581561770339
sg11
F3.678500427592899e-08
sa(dp892
g8
F0.9123621352718582
sg10
F0.08763786472813316
sg11
F8.734311634662537e-15
sa(dp893
g8
F0.6187340139817153
sg10
F0.38126598540371026
sg11
F6.145743137346919e-10
sa(dp894
g8
F0.71475904937872
sg10
F0.2852409476820063
sg11
F2.9392736056529364e-09
sa(dp895
g8
F0.9383945504250741
sg10
F0.061605449572366855
sg11
F2.5588266263412067e-12
sa(dp896
g8
F0.06478248332124935
sg10
F0.9352175166787507
sg11
F4.414895465674299e-17
sa(dp897
g8
F0.9944861701214386
sg10
F0.005513820338902227
sg11
F9.539659163569752e-09
sa(dp898
g8
F0.77305750408045
sg10
F0.22694249591954893
sg11
F1.0493849615884702e-15
sa(dp899
g8
F0.482508540089877
sg10
F0.5174914594944774
sg11
F4.156456763051648e-10
sa(dp900
g8
F0.013391984288326208
sg10
F2.0531980491234887e-07
sg11
F0.986607810391869
sa(dp901
g8
F0.995890543105057
sg10
F0.004109441768992461
sg11
F1.5125950504948494e-08
sa(dp902
g8
F0.06073654861802202
sg10
F0.939263451381978
sg11
F3.017949586439026e-18
sa(dp903
g8
F0.9649190588999262
sg10
F0.03508093210460024
sg11
F8.995473364119776e-09
sa(dp904
g8
F0.9141014778361988
sg10
F0.08589852178284275
sg11
F3.8095840178124763e-10
sa(dp905
g8
F0.8960730681565543
sg10
F0.0022267902593631427
sg11
F0.10170014158408272
sa(dp906
g8
F0.4378968789441834
sg10
F0.5621031208085907
sg11
F2.4722595413960706e-10
sa(dp907
g8
F0.9990250428447416
sg10
F0.0009743818670892847
sg11
F5.752881691931171e-07
sa(dp908
g8
F0.9123978532876085
sg10
F0.0876021467123794
sg11
F1.2235652666534176e-14
sa(dp909
g8
F0.9190294843767987
sg10
F0.08097051468076624
sg11
F9.424351247064272e-10
sa(dp910
g8
F0.9198056113936909
sg10
F0.08019438860557124
sg11
F7.378847967840798e-13
sa(dp911
g8
F0.9197340909812233
sg10
F0.08026590901804594
sg11
F7.308787708056523e-13
sa(dp912
g8
F0.6165531548736549
sg10
F0.38344684456456785
sg11
F5.617772322454759e-10
sa(dp913
g8
F0.9996210531941592
sg10
F0.00037878364649351415
sg11
F1.6315934741284018e-07
sa(dp914
g8
F0.5935574845183141
sg10
F0.4064425154766173
sg11
F5.0686103266107435e-12
sa(dp915
g8
F0.7239203376575579
sg10
F0.27607965918137994
sg11
F3.161062017799075e-09
sa(dp916
g8
F0.6781696640518824
sg10
F0.3218303338946477
sg11
F2.0534700564088824e-09
sa(dp917
g8
F0.9406352347323172
sg10
F0.059364761863577316
sg11
F3.4041053574023854e-09
sa(dp918
g8
F0.9178120761672
sg10
F0.08218792383225752
sg11
F5.426013838878286e-13
sa(dp919
g8
F0.6171207653119773
sg10
F0.38287923411250396
sg11
F5.755186859943558e-10
sa(dp920
g8
F0.6744325729043426
sg10
F0.0010799730536448276
sg11
F0.3244874540420125
sa(dp921
g8
F0.9944091445429076
sg10
F0.005590853910768754
sg11
F1.5463236729200664e-09
sa(dp922
g8
F0.9113208200037511
sg10
F0.08867917993210721
sg11
F6.414165910764232e-11
sa(dp923
g8
F0.8931940771624733
sg10
F0.0022118937193439017
sg11
F0.10459402911818284
sa(dp924
g8
F0.6214298729367659
sg10
F0.3785701260130991
sg11
F1.0501348884470758e-09
sa(dp925
g8
F0.7137876450007404
sg10
F0.2862123520835029
sg11
F2.9157565832767816e-09
sa(dp926
g8
F0.9373883096146012
sg10
F0.0626116873512347
sg11
F3.034164085113532e-09
sa(dp927
g8
F0.6113716689287776
sg10
F0.38862833063488517
sg11
F4.3633707351472174e-10
sa(dp928
g8
F0.7174213110533304
sg10
F0.2825786859429446
sg11
F3.0037251076205424e-09
sa(dp929
g8
F0.998335384664279
sg10
F0.001664313479960123
sg11
F3.018557609225369e-07
sa(dp930
g8
F0.5939185682636746
sg10
F0.4060814317225146
sg11
F1.381066979237397e-11
sa(dp931
g8
F0.9482615208421223
sg10
F0.05173847488486467
sg11
F4.2730129804659615e-09
sa(dp932
g8
F0.9171071397918253
sg10
F0.08289286020770098
sg11
F4.735469827272631e-13
sa(dp933
g8
F0.6173291209679858
sg10
F0.3826708784514513
sg11
F5.805628314452767e-10
sa(dp934
g8
F0.9470991552787172
sg10
F0.052900844717871154
sg11
F3.4115153562342306e-12
sa(dp935
g8
F0.7828208839766779
sg10
F0.2171791160233124
sg11
F9.551257317711103e-15
sa(dp936
g8
F0.9322523188931368
sg10
F0.0677476811049061
sg11
F1.957143738725272e-12
sa(dp937
g8
F0.6128731174379349
sg10
F0.38712688208937884
sg11
F4.726860866235778e-10
sa(dp938
g8
F0.9951746766596666
sg10
F0.004825322070946006
sg11
F1.269387419358698e-09
sa(dp939
g8
F0.9975886321815681
sg10
F0.002411362031560145
sg11
F5.786871667207206e-09
sa(dp940
g8
F0.7724215632725167
sg10
F0.22757843672748274
sg11
F4.956124507009301e-16
sa(dp941
g8
F0.9320133847916517
sg10
F0.06798661278658102
sg11
F2.421767269541686e-09
sa(dp942
g8
F0.7859489134908357
sg10
F0.21405108650915208
sg11
F1.2275120645381644e-14
sa(dp943
g8
F0.9995042533644946
sg10
F0.0004956530525498533
sg11
F9.358295570836809e-08
sa(dp944
g8
F0.060496699983431136
sg10
F0.9395033000165689
sg11
F5.79672546621414e-19
sa(dp945
g8
F0.9949445897293576
sg10
F0.005055410262544019
sg11
F8.098375231469536e-12
sa(dp946
g8
F0.990129550239431
sg10
F0.0027134594112529875
sg11
F0.007156990349315964
sa(dp947
g8
F0.41263323642308025
sg10
F0.5873667635557147
sg11
F2.120495953805236e-11
sa(dp948
g8
F0.9644182171006179
sg10
F0.035581776785541606
sg11
F6.1138404180117914e-09
sa(dp949
g8
F0.9993742544292241
sg10
F0.0006257294267743533
sg11
F1.6144001465665064e-08
sa(dp950
g8
F0.5936267814540638
sg10
F0.4063732185391905
sg11
F6.7457397302295745e-12
sa(dp951
g8
F0.01670798950305871
sg10
F3.204652115882696e-07
sg11
F0.9832916900317297
sa(dp952
g8
F0.9868421357096704
sg10
F0.013157864290037619
sg11
F2.9194274988101775e-13
sa(dp953
g8
F0.9120352624625999
sg10
F0.08796473739185781
sg11
F1.455422824038246e-10
sa(dp954
g8
F0.06679473920970422
sg10
F0.9332052607902958
sg11
F6.460556696704407e-17
sa(dp955
g8
F0.9225302588547943
sg10
F0.07746973820903331
sg11
F2.936172340286914e-09
sa(dp956
g8
F0.9180811831337872
sg10
F0.0819188160318233
sg11
F8.343896020268445e-10
sa(dp957
g8
F0.9198929884642449
sg10
F0.08010701153500879
sg11
F7.464441100682871e-13
sa(dp958
g8
F0.9197260387205
sg10
F0.08027396127876994
sg11
F7.30089984620702e-13
sa(dp959
g8
F0.7885038232571906
sg10
F0.21149617674279483
sg11
F1.4499915439539915e-14
sa(dp960
g8
F0.6569653319268554
sg10
F0.3430346665330169
sg11
F1.5401279185621371e-09
sa(dp961
g8
F0.9435703680522797
sg10
F0.05642963194465436
sg11
F3.065841181614522e-12
sa(dp962
g8
F0.6095708487394447
sg10
F0.3904291508678149
sg11
F3.927404592655007e-10
sa(dp963
g8
F0.01733597575405433
sg10
F3.4227148994380917e-07
sg11
F0.9826636819744556
sa(dp964
g8
F0.369348226972859
sg10
F4.652637754545841e-05
sg11
F0.6306052466495955
sa(dp965
g8
F0.9654712496500669
sg10
F0.034528750341807524
sg11
F8.125602665726807e-12
sa(dp966
g8
F0.603247139686003
sg10
F0.39675286007434907
sg11
F2.3964786334642237e-10
sa(dp967
g8
F0.5509019156211863
sg10
F0.4490980835713981
sg11
F8.07415717242725e-10
sa(dp968
g8
F0.7398197920939613
sg10
F0.26018020436006195
sg11
F3.5459767495105407e-09
sa(dp969
g8
F0.9361388686611283
sg10
F0.06386113133653401
sg11
F2.3378637623535164e-12
sa(dp970
g8
F0.9168057301583581
sg10
F0.08319426915257229
sg11
F6.890697266149098e-10
sa(dp971
g8
F0.9186170883411152
sg10
F0.08138291076343637
sg11
F8.954484223753703e-10
sa(dp972
g8
F0.9198436110763576
sg10
F0.08015638892290088
sg11
F7.416071828355058e-13
sa(dp973
g8
F0.6165208321648542
sg10
F0.383479167274151
sg11
F5.609947219566696e-10
sa(dp974
g8
F0.6741111980281078
sg10
F0.0010783101885600216
sg11
F0.3248104917833321
sa(dp975
g8
F0.9983779566430534
sg10
F0.0016215470105898162
sg11
F4.963463566430124e-07
sa(dp976
g8
F0.9109458382324673
sg10
F0.08905416174611218
sg11
F2.1420453546655124e-11
sa(dp977
g8
F0.9205501165906752
sg10
F0.07944988340851389
sg11
F8.108152942511604e-13
sa(dp978
g8
F0.6163123748266338
sg10
F0.38368762461741795
sg11
F5.55948114850152e-10
sa(dp979
g8
F0.9471894531535656
sg10
F0.05281054684301398
sg11
F3.4203607870735454e-12
sa(dp980
g8
F0.9320289787124019
sg10
F0.0024128341350918856
sg11
F0.06555818715250636
sa(dp981
g8
F0.9180068477905774
sg10
F0.08199315220856067
sg11
F8.618352329503097e-13
sa(dp982
g8
F0.9198998373455729
sg10
F0.08010016265368004
sg11
F7.471150113981572e-13
sa(dp983
g8
F0.9197254075560801
sg10
F0.08027459244318985
sg11
F7.300281567947147e-13
sa(dp984
g8
F0.9197414821142086
sg10
F0.08025851788505972
sg11
F7.316027940073938e-13
sa(dp985
g8
F0.6165509734550607
sg10
F0.3834490259832148
sg11
F5.61724421619219e-10
sa(dp986
g8
F0.9996210546591485
sg10
F0.0003787821806315542
sg11
F1.6316022009105315e-07
sa(dp987
g8
F0.7720051721564143
sg10
F0.22799482784358546
sg11
F1.3303647523529064e-16
sa(dp988
g8
F0.8197297989795647
sg10
F0.18027020102039362
sg11
F4.16912456210176e-14
sa(dp989
g8
F0.6470345845927858
sg10
F0.3529654141075027
sg11
F1.2997114357491774e-09
sa(dp990
g8
F0.994880502323086
sg10
F0.00511949651365389
sg11
F1.1632602161156923e-09
sa(dp991
g8
F0.06080387621365298
sg10
F0.9391961237863471
sg11
F3.702397833353674e-18
sa(dp992
g8
F0.4792772101364731
sg10
F7.019581192152387e-05
sg11
F0.5206525940516055
sa(dp993
g8
F0.9553305470304714
sg10
F0.0446694450515556
sg11
F7.917972915597188e-09
sa(dp994
g8
F0.9164531212852068
sg10
F0.08354687871438371
sg11
F4.0948042470993626e-13
sa(dp995
g8
F0.9200429753193975
sg10
F0.07995702467984142
sg11
F7.61136571325802e-13
sa(dp996
g8
F0.9183140767934715
sg10
F0.08168592234560397
sg11
F8.609245307548726e-10
sa(dp997
g8
F0.9184759191758216
sg10
F0.08152407994481424
sg11
F8.793641899487529e-10
sa(dp998
g8
F0.9198566184775249
sg10
F0.08014338152173216
sg11
F7.428813663358183e-13
sa(dp999
g8
F0.919729390418301
sg10
F0.08027060958096853
sg11
F7.304183114114637e-13
sa(dp1000
g8
F0.9924225031281871
sg10
F0.007577496595307838
sg11
F2.765051471361447e-10
sa(dp1001
g8
F0.9115084525213253
sg10
F0.08849154739315498
sg11
F8.551972861976094e-11
sa(dp1002
g8
F0.6189872206090357
sg10
F0.3810127787702601
sg11
F6.207042702921905e-10
sa(dp1003
g8
F0.7146677328423465
sg10
F0.2853322642205905
sg11
F2.937062895871894e-09
sa(dp1004
g8
F0.6812835503007805
sg10
F0.3187164475703644
sg11
F2.128855074948484e-09
sa(dp1005
g8
F0.5176637371770577
sg10
F0.4823362622059209
sg11
F6.170212192971937e-10
sa(dp1006
g8
F0.6257219023585306
sg10
F0.0008279332130671849
sg11
F0.3734501644284021
sa(dp1007
g8
F0.59496651997258
sg10
F0.0010173460802949585
sg11
F0.40401613394712493
sa(dp1008
g8
F0.99506236607743
sg10
F0.004937632008566563
sg11
F1.9140033751149682e-09
sasS'N'
p1009
I3
sS'states'
p1010
(lp1011
g8
ag10
ag11
asS'clist'
p1012
(lp1013
F1.6994482972049303
aF12.449654145560649
aF25.568801981795882
aF115.36961500359844
aF17.739860304659743
aF18.469847413547367
aF8.857109489336574
aF15.72738820817476
aF18.286524341800142
aF18.294482459623435
aF4.878815090671113
aF8.655006344421269
aF14.203182713336272
aF12.024559781713167
aF20.263530358105186
aF14.095805489463626
aF19.8628566798679
aF115.11432623976108
aF81.13853907595664
aF85.01064627078554
aF14.42063884786128
aF21.819498954925944
aF15.541950358885117
aF9.381710093736633
aF13.367759773256948
aF10.359109878701599
aF115.6408294972982
aF23.61347553611671
aF18.301564583889267
aF18.29442070492995
aF8.699246862107355
aF19.33731163831458
aF6.366164197499745
aF14.141723309467988
aF17.674805756251562
aF9.295216205060441
aF13.418391120315901
aF11.366184402139709
aF31.453689522002453
aF16.019263052535717
aF15.8065765746292
aF8.699201941006827
aF27.072603182900412
aF18.299838556812674
aF81.23535114772714
aF6.349454590959839
aF8.784129877208365
aF8.67781583893004
aF8.656229058341653
aF14.105214663514843
aF18.167193779719927
aF14.089615945761636
aF19.860231696659067
aF4.538882380777405
aF4.760320563858818
aF20.39706675015287
aF9.324605935383834
aF13.401144085212804
aF4.775754559288113
aF18.706695765862477
aF15.904651957520795
aF9.287012530421643
aF18.84334447566167
aF9.301591770579387
aF14.981731574987561
aF9.796915752343795
aF5.479020039240885
aF4.815095573618018
aF14.360677951336802
aF9.730989406713462
aF16.768808420138733
aF17.754522515698966
aF8.235445830616083
aF4.537377457990157
aF19.348725224896487
aF4.878135031232394
aF8.655114845044743
aF4.646477655740294
aF4.766526128158704
aF9.550031994929025
aF18.884065008971092
aF4.534721177339153
aF9.854521472767903
aF14.903698087223368
aF4.830978387748095
aF27.143126592874136
aF4.530988020088476
aF9.84767588062222
aF4.906079477871797
aF8.66958911031757
aF4.854430101099694
aF9.691129390449298
aF4.714316472165713
aF4.868473417180273
aF4.854232600667082
aF19.16091082954691
aF6.610949360279812
aF33.46619375647789
aF6.226466468008312
aF4.8595516457129335
aF4.647253445151996
aF5.138537499844926
aF11.102883205177063
aF10.853878251129004
aF8.975753636346411
aF9.051961594580993
aF8.76430706765173
aF4.863306661885269
aF4.648959750328926
aF5.137921376244701
aF4.967249350235315
aF11.142945074643789
aF4.738169423705879
aF9.505388137384875
aF8.499627345407761
aF4.912297530810092
aF4.605524691217303
aF19.3871608979028
aF4.8780998265534015
aF4.85334608878575
aF4.855626355824518
aF27.109916485212914
aF4.530980148789335
aF5.180873192838265
aF8.558472109497679
aF4.620891284441419
aF4.7650489667331115
aF4.604719436730213
aF4.764115800109399
aF4.863863892894055
aF14.205907907895352
aF22.063159548220074
aF8.243549226832029
aF4.539435544888638
aF5.177771031679333
aF4.953838185336924
aF4.784342622287553
aF4.861994149966347
aF4.854829469447085
aF4.855489649277025
aF4.855428810386595
aF4.645381444057731
aF5.139213623998506
aF4.966813312838812
aF5.025669751837548
aF8.542756449082416
aF4.8612893491722575
aF4.854894404509214
aF4.645138903716137
aF4.76644881616838
aF4.605343802690913
aF8.500483274119174
aF14.653632136896295
aF4.640160628226428
aF4.764896768409201
aF4.604651562846374
aF5.153968505503902
aF14.500565141255196
aF12.634988691135469
aF4.835944380180981
aF4.773880864578365
aF4.60866150982245
aF4.764343236485339
aF4.8638428609570274
aF4.854659151601193
aF4.645032142109126
aF4.766442650867001
aF14.16239571476498
aF8.588385974719957
aF9.633313993995031
aF18.896995364678677
aF27.45034525918137
aF9.289499811856672
aF18.843728825012448
aF9.30159744962073
aF16.715586373123855
aF14.087808139685498
aF14.41984343180789
aF12.463248401050526
aF18.04798284007697
aF9.29581098659077
aF16.714760973150046
aF18.29888311181503
aF20.54958964524883
aF15.618783404713236
aF14.116550136408534
aF10.525953748701843
aF12.732202256773157
aF8.501189187762613
aF4.605858088218923
aF11.673079280815598
aF4.746939663122882
aF20.409946965815564
aF9.324797196674247
aF25.062279698382216
aF8.700382855390224
aF4.852767669424018
aF4.644173934961678
aF5.139649843186848
aF4.966666138625464
aF5.0257205921444745
aF4.78852859963774
aF4.8616073828109805
aF27.10187003536545
aF4.879366603593641
aF4.656271653719155
aF5.135282819629462
aF4.794922921224278
aF18.815639232704598
aF8.237440030005937
aF14.094388416210625
aF10.535445701698347
aF33.33644142064416
aF8.856225811663474
aF17.80663893910527
aF6.383180695960568
aF8.682203178578563
aF14.017722748409616
aF9.838135988464272
aF16.78215088350195
aF4.8792509302867915
aF8.654936841351134
aF4.85522152262864
aF4.855453519451625
aF4.645392658890332
aF25.84826643663485
aF4.5306811388479336
aF5.180982978321612
aF4.952760376825504
aF8.535393666398555
aF4.86168813178403
aF4.648224126086205
aF10.067296088720164
aF20.119656289111163
aF8.697588368336303
aF13.966408827119583
aF4.705008242072652
aF5.130437067413321
aF8.553358687126046
aF4.619545341930969
aF5.1485632423502246
aF17.504837650055634
aF4.5324824136481405
aF8.49319793256754
aF4.8639747971804494
aF4.649263487178308
aF4.76668701606559
aF14.162504524491895
aF4.8148470253196285
aF4.627035164779365
aF19.399324731472046
aF18.287353029979666
aF14.089951647737776
aF8.583097786023819
aF14.184327832969283
aF26.538447787814054
aF17.74682409744137
aF4.611486506104772
aF15.694145794398892
aF9.335663008392412
aF8.4038040093797
aF27.306623928026625
aF4.531026771832239
aF42.30103907815439
aF16.768221462059074
aF8.693635404880865
aF19.317468098179802
aF18.12093925556228
aF8.660183730726544
aF4.854938089781854
aF4.855479639289044
aF14.202152655185118
aF4.8469847120254945
aF4.778133658747959
aF4.610562131761562
aF43.99875778486792
aF5.455983657828054
aF4.930024326537945
aF4.579016949482241
aF11.714472752373293
aF5.260295797118276
aF4.802239877872611
aF8.667240725180134
aF8.65721860154889
aF4.855098259647095
aF4.645231420330448
aF10.061568038516546
aF17.876405692695542
aF8.699663426149282
aF4.852806504293837
aF4.644191552006928
aF4.766394108774206
aF14.658585724705482
aF4.884016275747251
aF4.854915873163497
aF4.855481686653455
aF4.855429544173306
aF4.645381777104564
aF25.848257779873133
aF14.087046773136567
aF14.420006745372268
aF4.797446184526515
aF19.49623161652462
aF17.82342949503716
aF6.588929253301134
aF8.78195886019506
aF4.8660962967063845
aF4.854451563731122
aF8.658895143812193
aF8.657999681235102
aF4.855056066372374
aF4.855468767087479
aF20.305945491717846
aF8.69655020933449
aF4.657534749368665
aF5.134827296336615
aF4.968293682993007
aF11.141482881832374
aF9.199097651769424
aF9.179305608316978
aF20.016214241194234
asS'logB'
p1014
(dp1015
g8
(dp1016
g16
F-2.9212348804951955
sg17
F-2.5633371230760758
sg18
F-2.2705196883974508
sg19
F-5.11102215480017
sg20
F-2.6570023729358256
sg21
F-2.394531914401664
sg22
F-2.5567896167969173
sg23
F-3.093728761473657
sg24
F-3.955377711169584
sg25
F-2.5311773915230478
sg26
F-2.3856993883549533
sg27
F-2.744681015196079
sg28
F-2.319990802883572
sg29
F-2.6363994576488694
sg30
F-3.0060044723555492
sg31
F-6.771947206302559
ssg10
(dp1017
V11
p1018
F-2.2061636400830515
sV10
p1019
F-2.7886349913133275
sV13
p1020
F-2.2366278495501097
sV12
p1021
F-4.803495959222991
sV15
p1022
F-2.3946538192158955
sV14
p1023
F-3.4340383811510673
sV1
p1024
F-4.3946466318475315
sV0
p1025
F-2.883896900512308
sV3
p1026
F-2.4577642134121223
sV2
p1027
F-2.428127950235306
sV5
p1028
F-3.4036523078985326
sV4
p1029
F-2.347181559984261
sV7
p1030
F-3.329045325183329
sV6
p1031
F-2.1769737091555577
sV9
p1032
F-3.144112388866956
sV8
p1033
F-3.626896918534498
ssg11
(dp1034
V11
p1035
F-3.776462439005156
sV10
p1036
F-2.56023877712607
sV13
p1037
F-2.2875507466486336
sV12
p1038
F-4.0011284607127555
sV15
p1039
F-2.352279906055419
sV14
p1040
F-3.184664319984376
sV1
p1041
F-4.212541507026543
sV0
p1042
F-2.2779335809252834
sV3
p1043
F-2.523757470272191
sV2
p1044
F-2.89618699908023
sV5
p1045
F-2.2244950581471348
sV4
p1046
F-2.159180925692466
sV7
p1047
F-3.3688691655609246
sV6
p1048
F-3.3780880383582845
sV9
p1049
F-2.504124323723734
sV8
p1050
F-4.078634034718041
sssS'logA'
p1051
(dp1052
g8
(dp1053
Vq1
p1054
F-0.12159375102178108
sVq3
p1055
F-2.1714793139375113
sVq2
p1056
F-7.635223578707189
ssg10
(dp1057
Vq1
p1058
F-0.051018605614936104
sVq3
p1059
F-3.3863773220688
sVq2
p1060
F-4.140933416759925
ssg11
(dp1061
Vq1
p1062
F-0.02848274252499949
sVq3
p1063
F-3.5815404521278484
sVq2
p1064
F-8.301505382807537
sssS'model'
p1065
(dp1066
VA
p1067
(dp1068
g8
(dp1069
g1054
F0.8855080321744565
sg1055
F0.11400883724062709
sg1056
F0.00048313058491640786
ssg10
(dp1070
g1058
F0.9502609901778785
sg1059
F0.033831014039701346
sg1060
F0.01590799578242019
ssg11
(dp1071
g1062
F0.9719190668704077
sg1063
F0.027832790133992855
sg1064
F0.0002481429955994003
sssVB
p1072
(dp1073
Vq1
p1074
(dp1075
g16
F0.05386712674749742
sg17
F0.077047194979542
sg18
F0.103258503890451
sg19
F0.00602991626464192
sg20
F0.07015821501075101
sg21
F0.09121536553027698
sg22
F0.07755331708317478
sg23
F0.045332604399164866
sg24
F0.01915143347300857
sg25
F0.07956528562270637
sg26
F0.09202459613648334
sg27
F0.06426879844520396
sg28
F0.0982744894421265
sg29
F0.07161867194567796
sg30
F0.0494890190022545
sg31
F0.0011454620270388422
ssVq3
p1076
(dp1077
g1018
F0.1101223079879357
sg1019
F0.061505111653083845
sg1020
F0.1068181044446883
sg1021
F0.008201026421244215
sg1022
F0.09120424661582534
sg1023
F0.032256413698180074
sg1024
F0.012343241263237551
sg1025
F0.05591643692155573
sg1026
F0.08562617897768209
sg1027
F0.08820179627603751
sg1028
F0.03325160282102376
sg1029
F0.09563833362215457
sg1030
F0.03582729215985531
sg1031
F0.11338414535406975
sg1032
F0.04310516769831538
sg1033
F0.026598594085111
ssVq2
p1078
(dp1079
g1035
F0.022903571062053995
sg1036
F0.07728628404311588
sg1037
F0.10151479306384253
sg1038
F0.018294982067217063
sg1039
F0.09515197715995265
sg1040
F0.04139213798270078
sg1041
F0.014808684096303926
sg1042
F0.10249578728310807
sg1043
F0.08015784944613936
sg1044
F0.055233424144602555
sg1045
F0.10812200017652181
sg1046
F0.11541961957709766
sg1047
F0.034428548326521306
sg1048
F0.03411261443362269
sg1049
F0.08174715069273093
sg1050
F0.016930576444468923
sssVpi
p1080
(dp1081
Vq1
p1082
F0.3333333333333333
sVq3
p1083
F0.3333333333333333
sVq2
p1084
F0.3333333333333333
sssS'pi'
p1085
(dp1086
g8
F2.7842999479833542e-49
sg10
F5.451079000097413e-85
sg11
F1.0
ssS'bwk_scaled'
p1087
(lp1088
(dp1089
g8
F0.00773887627521217
sg10
F1.2184976697226693
sg11
F1.6994482972049254
sa(dp1090
g8
F11.591313411458229
sg10
F13.480714418148835
sg11
F12.453930182188381
sa(dp1091
g8
F25.568702637873333
sg10
F29.921331414734748
sg11
F27.71863022055801
sa(dp1092
g8
F115.37803238412357
sg10
F0.1290927969166772
sg11
F3.78663851658622
sa(dp1093
g8
F0.14704827089750386
sg10
F18.872136265202162
sg11
F26.30610500772912
sa(dp1094
g8
F21.338785092914282
sg10
F19.819944775000227
sg11
F18.447023208086176
sa(dp1095
g8
F8.806475665069557
sg10
F22.768242165219245
sg11
F26.98875948146478
sa(dp1096
g8
F15.714515064834544
sg10
F18.23852915024312
sg11
F16.85038769091553
sa(dp1097
g8
F18.279453037341327
sg10
F21.220971989216938
sg11
F19.605682997378675
sa(dp1098
g8
F18.29212615950985
sg10
F19.266541982649255
sg11
F17.853977081941792
sa(dp1099
g8
F4.839374547170885
sg10
F5.290289309282397
sg11
F4.896587521815339
sa(dp1100
g8
F8.899503291035487
sg10
F5.88039171393027
sg11
F5.554778563420773
sa(dp1101
g8
F10.64882222868742
sg10
F27.46635303770732
sg11
F32.543811152360945
sa(dp1102
g8
F11.849878532962876
sg10
F13.691994209535038
sg11
F12.651561168373295
sa(dp1103
g8
F20.28089465793036
sg10
F17.61124217696239
sg11
F16.433316304380696
sa(dp1104
g8
F13.62453992478327
sg10
F15.702985962332225
sg11
F14.51082983782647
sa(dp1105
g8
F19.84181631085558
sg10
F23.217761101576123
sg11
F21.507712505068447
sa(dp1106
g8
F115.25626610427128
sg10
F0.06925803212956759
sg11
F3.729123938956319
sa(dp1107
g8
F59.33903474977112
sg10
F81.14020944324565
sg11
F80.68725366443964
sa(dp1108
g8
F84.37362102912905
sg10
F96.11054167021742
sg11
F88.84523405080797
sa(dp1109
g8
F17.72590431353375
sg10
F1.30587538991475
sg11
F1.7346595429175058
sa(dp1110
g8
F22.670423003166015
sg10
F21.748684061207967
sg11
F20.218458817518307
sa(dp1111
g8
F15.626460045869202
sg10
F11.283082463411372
sg11
F10.61218725436177
sa(dp1112
g8
F14.121987818115795
sg10
F6.010875593607711
sg11
F5.837914701750647
sa(dp1113
g8
F12.456747629916261
sg10
F15.036103323335096
sg11
F14.145692390553696
sa(dp1114
g8
F14.78235937150872
sg10
F0.009051901582099694
sg11
F0.4784357979848584
sa(dp1115
g8
F99.43402477383782
sg10
F115.64264062310379
sg11
F106.83447901176226
sa(dp1116
g8
F23.61347349530221
sg10
F27.406211135778847
sg11
F25.320313364489262
sa(dp1117
g8
F18.29443822597428
sg10
F21.233228371402674
sg11
F19.61714824383071
sa(dp1118
g8
F18.287646170786747
sg10
F21.089227640798615
sg11
F19.487828086578293
sa(dp1119
g8
F9.461365117769025
sg10
F0.896210852060628
sg11
F1.1044575893902524
sa(dp1120
g8
F25.833159122080044
sg10
F18.871773807624837
sg11
F17.740005334206693
sa(dp1121
g8
F6.399027257398362
sg10
F5.5452674191791465
sg11
F5.1747916872066035
sa(dp1122
g8
F13.654980182765428
sg10
F15.865863341420864
sg11
F14.657818984806315
sa(dp1123
g8
F17.684458271008808
sg10
F12.400759090486629
sg11
F11.679635299949554
sa(dp1124
g8
F13.647642258902593
sg10
F6.263578963986008
sg11
F6.049365196343718
sa(dp1125
g8
F13.10242623164694
sg10
F14.004521575555613
sg11
F12.971585883527892
sa(dp1126
g8
F20.307013082628576
sg10
F1.255668130649577
sg11
F1.7717714582724589
sa(dp1127
g8
F27.618054590491006
sg10
F31.954354867125677
sg11
F29.525055326523304
sa(dp1128
g8
F16.013529824956045
sg10
F39.20728594299354
sg11
F46.00512946529359
sa(dp1129
g8
F15.805032500195207
sg10
F16.51503654304822
sg11
F15.308188926810356
sa(dp1130
g8
F8.57496954396625
sg10
F9.972743331666846
sg11
F9.213149235685632
sa(dp1131
g8
F27.07000289386174
sg10
F31.50644322196314
sg11
F29.106032620486406
sa(dp1132
g8
F18.34426647172169
sg10
F0.010493057213464763
sg11
F0.5930547066222986
sa(dp1133
g8
F33.0383623386675
sg10
F81.2390497196317
sg11
F95.40325687856337
sa(dp1134
g8
F6.430015060476421
sg10
F6.776108592912769
sg11
F6.279196929850639
sa(dp1135
g8
F8.758640177597082
sg10
F9.344480032166482
sg11
F8.655768094897981
sa(dp1136
g8
F8.730755911805227
sg10
F8.108704132797595
sg11
F7.547037853240865
sa(dp1137
g8
F7.668386832858924
sg10
F19.83332234773336
sg11
F23.511402518891767
sa(dp1138
g8
F14.001191285161466
sg10
F16.261574989921712
sg11
F15.023581363511042
sa(dp1139
g8
F18.172436100298984
sg10
F15.763860076303857
sg11
F14.710099519270003
sa(dp1140
g8
F13.602583817071002
sg10
F15.742193954176948
sg11
F14.545280278412378
sa(dp1141
g8
F19.90013453514491
sg10
F13.489494903972092
sg11
F12.72615540380933
sa(dp1142
g8
F4.453320415537642
sg10
F4.66468972036463
sg11
F4.323469791353066
sa(dp1143
g8
F4.722567761402432
sg10
F5.463717094755376
sg11
F5.0483449503828615
sa(dp1144
g8
F20.442869268394332
sg10
F14.611205470173212
sg11
F13.749009541481453
sa(dp1145
g8
F13.93441104203265
sg10
F6.09100804527459
sg11
F5.90378349078203
sa(dp1146
g8
F12.700534458261648
sg10
F14.695112197363185
sg11
F13.577896904402012
sa(dp1147
g8
F5.039140245723627
sg10
F0.31016973393093655
sg11
F0.43838679220418714
sa(dp1148
g8
F16.23577147431182
sg10
F18.87662304200288
sg11
F17.439002312081353
sa(dp1149
g8
F15.905884876087057
sg10
F6.944657105696289
sg11
F6.731784328491077
sa(dp1150
g8
F8.4896409921592
sg10
F9.84132206692771
sg11
F9.092616329234392
sa(dp1151
g8
F18.874161015383475
sg10
F9.052369010777806
sg11
F8.71573674975269
sa(dp1152
g8
F9.341460835825224
sg10
F9.273778919092898
sg11
F8.610929455548522
sa(dp1153
g8
F15.630757538661317
sg10
F9.12460560505037
sg11
F8.677301783178834
sa(dp1154
g8
F11.84538741318348
sg10
F8.189571898829195
sg11
F7.718630019244339
sa(dp1155
g8
F5.480890272715391
sg10
F5.472245145663672
sg11
F5.080117204066236
sa(dp1156
g8
F4.589402035691865
sg10
F7.917022467853151
sg11
F8.538860357296162
sa(dp1157
g8
F15.098914436306936
sg10
F6.576422223898001
sg11
F6.375995810030222
sa(dp1158
g8
F8.903815307569294
sg10
F10.361415721474172
sg11
F9.572045654963187
sa(dp1159
g8
F16.783905798329723
sg10
F1.0935728533676694
sg11
F1.514364491425882
sa(dp1160
g8
F16.310674519675985
sg10
F17.84754558182358
sg11
F16.518838651709572
sa(dp1161
g8
F8.250312722256215
sg10
F5.3654463168540945
sg11
F5.072487634083947
sa(dp1162
g8
F4.2714641199568835
sg10
F4.927877979955717
sg11
F4.553625689456237
sa(dp1163
g8
F19.343912263541466
sg10
F20.374145623574183
sg11
F18.880380922849298
sa(dp1164
g8
F4.838743905915073
sg10
F5.290175706816462
sg11
F4.896465615213874
sa(dp1165
g8
F8.900553310906526
sg10
F5.870549322581362
sg11
F5.545988535796611
sa(dp1166
g8
F4.447018602324548
sg10
F4.967487763234891
sg11
F4.594720399215616
sa(dp1167
g8
F4.912823503727435
sg10
F2.144726500804809
sg11
F2.0790035466092665
sa(dp1168
g8
F8.74847920555229
sg10
F10.143324235915161
sg11
F9.371589248043826
sa(dp1169
g8
F18.91758799219955
sg10
F8.638187515661997
sg11
F8.345814860857079
sa(dp1170
g8
F2.998010936910235
sg10
F6.786439607827325
sg11
F7.837817482443532
sa(dp1171
g8
F10.458011394835694
sg10
F9.297836224040504
sg11
F8.668020830147073
sa(dp1172
g8
F14.791068968775427
sg10
F15.48423618903485
sg11
F14.351840658218835
sa(dp1173
g8
F4.77419310580884
sg10
F5.555061512640421
sg11
F5.131875988161384
sa(dp1174
g8
F27.152327082724483
sg10
F11.768887933246138
sg11
F11.414411475720263
sa(dp1175
g8
F2.841543684132127
sg10
F6.998835451871892
sg11
F8.221727369898904
sa(dp1176
g8
F9.915055873521103
sg10
F10.48312239121869
sg11
F9.713326287024634
sa(dp1177
g8
F4.891739733446912
sg10
F5.133404042540428
sg11
F4.757609761671949
sa(dp1178
g8
F8.587419659539048
sg10
F9.570087936983665
sg11
F8.852572458937075
sa(dp1179
g8
F5.072652769775146
sg10
F2.343177412331336
sg11
F2.2619951671218272
sa(dp1180
g8
F9.385531042444333
sg10
F9.925010591319875
sg11
F9.196145024416765
sa(dp1181
g8
F4.70612065889802
sg10
F4.929099709727342
sg11
F4.568550125810565
sa(dp1182
g8
F4.804555540339622
sg10
F5.562957333244073
sg11
F5.139919967426007
sa(dp1183
g8
F5.2509572376181275
sg10
F0.285041497241663
sg11
F0.42259918425506443
sa(dp1184
g8
F14.661961677395858
sg10
F19.479684977062877
sg11
F19.143565589566446
sa(dp1185
g8
F12.13478877961388
sg10
F1.2443064282160579
sg11
F1.5015754704957414
sa(dp1186
g8
F47.21726143774057
sg10
F31.617094110157502
sg11
F29.846240720103104
sa(dp1187
g8
F6.194182025439853
sg10
F6.679686671247319
sg11
F6.185253628597539
sa(dp1188
g8
F4.929753177202272
sg10
F4.068694085906129
sg11
F3.804332517475404
sa(dp1189
g8
F5.490258423647118
sg10
F3.2896252057703843
sg11
F3.1237493952736117
sa(dp1190
g8
F4.640636041173088
sg10
F6.390184801748615
sg11
F6.373581398872657
sa(dp1191
g8
F14.319831372719646
sg10
F2.050194354132049
sg11
F2.2935546112365226
sa(dp1192
g8
F3.5811860456281948
sg10
F17.812541002619035
sg11
F22.942439139485394
sa(dp1193
g8
F5.191664078912393
sg10
F12.75677883617997
sg11
F14.978887394266721
sa(dp1194
g8
F9.14484316728981
sg10
F9.623434910190127
sg11
F8.918131968510018
sa(dp1195
g8
F8.725289529996274
sg10
F9.448291202808539
sg11
F8.747771156428227
sa(dp1196
g8
F4.953900922017406
sg10
F3.8582705966605895
sg11
F3.6164612529415407
sa(dp1197
g8
F5.202093268119277
sg10
F3.756868271470794
sg11
F3.5334531069267534
sa(dp1198
g8
F5.29863291876733
sg10
F4.734162384382464
sg11
F4.412645135097649
sa(dp1199
g8
F6.04242351895371
sg10
F2.671187445262804
sg11
F2.5869027980307524
sa(dp1200
g8
F10.455810061953185
sg10
F11.880658079595804
sg11
F10.983388003878266
sa(dp1201
g8
F4.899618263300578
sg10
F1.2394270773077716
sg11
F1.2670044082257763
sa(dp1202
g8
F5.081424916821557
sg10
F12.745373053005343
sg11
F15.023972470162892
sa(dp1203
g8
F8.450776894992234
sg10
F9.257355133637631
sg11
F8.567867601711695
sa(dp1204
g8
F5.004966101495459
sg10
F3.2549313125015655
sg11
F3.0772069162455535
sa(dp1205
g8
F4.344253830193334
sg10
F5.011716379632783
sg11
F4.631100687737891
sa(dp1206
g8
F19.38191311227622
sg10
F20.47785108411296
sg11
F18.974559404445323
sa(dp1207
g8
F4.853739251428839
sg10
F5.132952048119211
sg11
F4.75599549534966
sa(dp1208
g8
F4.835295317205978
sg10
F5.062017584699488
sg11
F4.69181764862586
sa(dp1209
g8
F4.792770478162073
sg10
F5.575346555870688
sg11
F5.150652460525414
sa(dp1210
g8
F27.113137925741807
sg10
F21.67579351665527
sg11
F20.294465331154214
sa(dp1211
g8
F5.242900848796776
sg10
F3.491052321477726
sg11
F3.2964538994285837
sa(dp1212
g8
F5.051618841803213
sg10
F5.519759263037477
sg11
F5.109054618803267
sa(dp1213
g8
F8.744153633536468
sg10
F5.821685992360314
sg11
F5.497207673626123
sa(dp1214
g8
F4.459835807214654
sg10
F4.874544048529166
sg11
F4.511806407907044
sa(dp1215
g8
F4.8475452452729595
sg10
F3.273064525377213
sg11
F3.088454341013184
sa(dp1216
g8
F4.5035855006848005
sg10
F4.761843495667677
sg11
F4.412165049342898
sa(dp1217
g8
F4.752021385808686
sg10
F4.9841233852415465
sg11
F4.619337912118618
sa(dp1218
g8
F4.807409681203673
sg10
F5.488741050063994
sg11
F5.073477676198522
sa(dp1219
g8
F17.693041280887186
sg10
F1.1630462337114365
sg11
F1.6055710827648866
sa(dp1220
g8
F20.47793143306836
sg10
F22.196903361354977
sg11
F20.550519520918954
sa(dp1221
g8
F8.257024528493096
sg10
F6.220860140938089
sg11
F5.839558940788182
sa(dp1222
g8
F4.9481540867500815
sg10
F3.9381933417309587
sg11
F3.687927213408049
sa(dp1223
g8
F5.688774169718187
sg10
F3.8421545184515313
sg11
F3.625394582720169
sa(dp1224
g8
F4.865229107965193
sg10
F5.140742620916666
sg11
F4.763345120603729
sa(dp1225
g8
F4.768593889786936
sg10
F5.038524005591033
sg11
F4.668634027029366
sa(dp1226
g8
F4.83935350394101
sg10
F5.114511781641739
sg11
F4.739006541019593
sa(dp1227
g8
F4.833882536984162
sg10
F5.095478766240716
sg11
F4.721769837581359
sa(dp1228
g8
F4.822994706184089
sg10
F5.227779688163244
sg11
F4.840027997215641
sa(dp1229
g8
F4.947617161305392
sg10
F3.798971345440439
sg11
F3.5631009849167867
sa(dp1230
g8
F5.13040029077393
sg10
F3.8655157075367232
sg11
F3.628571889466144
sa(dp1231
g8
F5.456235360431377
sg10
F4.3417391919083315
sg11
F4.065861592357728
sa(dp1232
g8
F5.539754504579852
sg10
F3.7437749989972744
sg11
F3.532458462225212
sa(dp1233
g8
F4.942007761388299
sg10
F5.214332075976839
sg11
F4.831759127822701
sa(dp1234
g8
F8.515256929460564
sg10
F8.968330528752151
sg11
F8.310815566980834
sa(dp1235
g8
F4.824131733491674
sg10
F5.2769145490466824
sg11
F4.884112385545131
sa(dp1236
g8
F4.988183054281767
sg10
F3.32402084255699
sg11
F3.1386100297415602
sa(dp1237
g8
F4.489010250378552
sg10
F4.89612781005244
sg11
F4.532083951965587
sa(dp1238
g8
F4.843588237521871
sg10
F3.383372446931297
sg11
F3.187216821602325
sa(dp1239
g8
F4.654120303205673
sg10
F4.529523662395453
sg11
F4.208685470435742
sa(dp1240
g8
F8.071698354934982
sg10
F16.153562007197504
sg11
F18.137997749831644
sa(dp1241
g8
F15.031207848478962
sg10
F10.040217400838406
sg11
F9.479050118989953
sa(dp1242
g8
F4.492264354855849
sg10
F4.872570730938123
sg11
F4.511069135111008
sa(dp1243
g8
F4.825442275803632
sg10
F3.668866764270685
sg11
F3.442578219080224
sa(dp1244
g8
F5.04880118367544
sg10
F3.9146496860072943
sg11
F3.670023122502802
sa(dp1245
g8
F5.574576748574754
sg10
F4.080383033612202
sg11
F3.835327308574585
sa(dp1246
g8
F12.409553905168288
sg10
F24.8026839737042
sg11
F27.840779314712485
sa(dp1247
g8
F13.54711529299371
sg10
F9.019441588263788
sg11
F8.516730896450438
sa(dp1248
g8
F4.680272363390387
sg10
F5.115428138954562
sg11
F4.734766649010119
sa(dp1249
g8
F4.860873419349656
sg10
F3.282593218638642
sg11
F3.0974206377763465
sa(dp1250
g8
F4.508341024654217
sg10
F4.765039789557241
sg11
F4.415181752870531
sa(dp1251
g8
F4.751142734707753
sg10
F5.004131075033306
sg11
F4.637246365746014
sa(dp1252
g8
F4.8264878958783815
sg10
F5.277350647366085
sg11
F4.884578301651837
sa(dp1253
g8
F4.985975292988439
sg10
F3.3449547071967634
sg11
F3.157306489072241
sa(dp1254
g8
F4.517524185340346
sg10
F4.8499925072403025
sg11
F4.4916319807003315
sa(dp1255
g8
F4.798020727435156
sg10
F4.200239926312487
sg11
F3.918068916526714
sa(dp1256
g8
F13.814299031358411
sg10
F15.416993129607414
sg11
F14.260481646122436
sa(dp1257
g8
F8.934453997259372
sg10
F3.914783701963273
sg11
F3.7937706186598454
sa(dp1258
g8
F8.862592942196441
sg10
F10.215156088021821
sg11
F9.439615457453018
sa(dp1259
g8
F18.88680004595649
sg10
F21.975886521866467
sg11
F20.301760989283675
sa(dp1260
g8
F27.460404185900956
sg10
F11.986743090607431
sg11
F11.61951509404668
sa(dp1261
g8
F8.490161524834798
sg10
F9.84550815196634
sg11
F9.096385613926651
sa(dp1262
g8
F18.877136726927287
sg10
F8.233388384426808
sg11
F7.981635139159798
sa(dp1263
g8
F8.49520553446646
sg10
F9.86414109005317
sg11
F9.113254370138257
sa(dp1264
g8
F16.715981719940537
sg10
F16.28297876431576
sg11
F15.129137756182494
sa(dp1265
g8
F15.271732615701927
sg10
F10.076478336222564
sg11
F9.519209743765616
sa(dp1266
g8
F11.210566370391984
sg10
F29.010848204776288
sg11
F34.394348126542425
sa(dp1267
g8
F12.287259929265195
sg10
F14.285872383011691
sg11
F13.19787734412962
sa(dp1268
g8
F18.067835604673725
sg10
F7.882631831656941
sg11
F7.641441365303803
sa(dp1269
g8
F8.49189974646754
sg10
F9.85584685872645
sg11
F9.105714405460565
sa(dp1270
g8
F16.71231659166882
sg10
F19.397515262385447
sg11
F17.921137513918296
sa(dp1271
g8
F18.292621168503942
sg10
F20.87767013038617
sg11
F19.298330264595855
sa(dp1272
g8
F20.320974849305586
sg10
F47.80825397448199
sg11
F55.657357257733246
sa(dp1273
g8
F15.638820345136862
sg10
F15.07798809572105
sg11
F14.014621455690087
sa(dp1274
g8
F15.13455988899908
sg10
F10.618523055617855
sg11
F10.000775371034177
sa(dp1275
g8
F14.631866509670571
sg10
F6.706037736799373
sg11
F6.47733320731206
sa(dp1276
g8
F12.387751866148557
sg10
F13.270819180359958
sg11
F12.291101174650457
sa(dp1277
g8
F8.55441969510135
sg10
F7.553522430043576
sg11
F7.043720420707779
sa(dp1278
g8
F5.8266940831046785
sg10
F2.70732036075409
sg11
F2.6124313538256883
sa(dp1279
g8
F11.429414328835371
sg10
F11.969093968746863
sg11
F11.093645187521139
sa(dp1280
g8
F4.711727388578701
sg10
F5.463915827457674
sg11
F5.048178206080576
sa(dp1281
g8
F20.501262439264988
sg10
F8.932395201201313
sg11
F8.659951596415878
sa(dp1282
g8
F8.509178367893107
sg10
F9.89694808536674
sg11
F9.143107188722855
sa(dp1283
g8
F25.06195820822127
sg10
F26.371085568833273
sg11
F24.43841986839358
sa(dp1284
g8
F8.63574582118981
sg10
F9.360504486843992
sg11
F8.666223537020915
sa(dp1285
g8
F4.943934794258923
sg10
F3.7962822025087495
sg11
F3.5605730738797714
sa(dp1286
g8
F5.129580208507931
sg10
F3.864483880793541
sg11
F3.6276207897529504
sa(dp1287
g8
F5.456196775631986
sg10
F4.3430275786171615
sg11
F4.067015372188193
sa(dp1288
g8
F5.54092921265501
sg10
F3.740972512455646
sg11
F3.529983475915513
sa(dp1289
g8
F4.938450877652288
sg10
F5.222527953602608
sg11
F4.83899334049026
sa(dp1290
g8
F4.775170832337753
sg10
F4.999165914230553
sg11
F4.633559706192315
sa(dp1291
g8
F4.797331312336456
sg10
F5.579630478480768
sg11
F5.154638276828347
sa(dp1292
g8
F27.100584117882285
sg10
F29.27620289556224
sg11
F27.107648698893605
sa(dp1293
g8
F4.963940959443077
sg10
F3.998897412207043
sg11
F3.74284922242894
sa(dp1294
g8
F5.374076566035892
sg10
F3.4913885253427877
sg11
F3.3009288339407017
sa(dp1295
g8
F4.916064023313816
sg10
F5.684603032555563
sg11
F5.252520184346395
sa(dp1296
g8
F5.086992145680648
sg10
F0.3460280512383959
sg11
F0.47205537849349793
sa(dp1297
g8
F18.055427699619006
sg10
F18.868299057915763
sg11
F17.489431167096534
sa(dp1298
g8
F8.230091459179953
sg10
F9.56284526805386
sg11
F8.834710696147274
sa(dp1299
g8
F18.201600249300647
sg10
F0.10357142288808119
sg11
F0.6719581197645449
sa(dp1300
g8
F0.12958055802977836
sg10
F20.237864358801826
sg11
F28.22533093732575
sa(dp1301
g8
F31.323098933827197
sg10
F36.10491582090966
sg11
F33.3637694858022
sa(dp1302
g8
F8.889120526648377
sg10
F0.884481782708919
sg11
F1.0757360183404452
sa(dp1303
g8
F25.05000493820043
sg10
F17.338253790598873
sg11
F16.340324677856728
sa(dp1304
g8
F6.384149674037926
sg10
F6.356528579659457
sg11
F5.901594370489197
sa(dp1305
g8
F8.17264637596569
sg10
F14.104725174927621
sg11
F15.214617087221404
sa(dp1306
g8
F14.91167352225091
sg10
F6.504639224415015
sg11
F6.305686764276382
sa(dp1307
g8
F9.022106486725335
sg10
F10.473849897086152
sg11
F9.67660825724209
sa(dp1308
g8
F16.781222884344874
sg10
F17.733826961449072
sg11
F16.43186374806525
sa(dp1309
g8
F4.855804209950947
sg10
F5.123454275797227
sg11
F4.747546697534222
sa(dp1310
g8
F8.617925425290462
sg10
F9.075022881108813
sg11
F8.409729214388438
sa(dp1311
g8
F4.818250425517022
sg10
F5.279268930108473
sg11
F4.8860359092607855
sa(dp1312
g8
F4.9966494661248575
sg10
F3.2375471473549338
sg11
F3.061357828321724
sa(dp1313
g8
F4.3716260368181095
sg10
F5.085588417183095
sg11
F4.698196757267614
sa(dp1314
g8
F25.850679818328416
sg10
F19.482538505808993
sg11
F18.28809852859894
sa(dp1315
g8
F4.942210504200795
sg10
F3.9296949585180747
sg11
F3.6801195155706936
sa(dp1316
g8
F5.687462875318221
sg10
F3.852920294345571
sg11
F3.635004119253031
sa(dp1317
g8
F4.875848614852521
sg10
F5.114830942342473
sg11
F4.74045382968926
sa(dp1318
g8
F8.475702474151857
sg10
F9.481201180342614
sg11
F8.769333200222563
sa(dp1319
g8
F5.104559989098756
sg10
F2.1494803862999086
sg11
F2.089365676858682
sa(dp1320
g8
F2.897406348723481
sg10
F7.470173994362306
sg11
F8.850460093925223
sa(dp1321
g8
F9.851935904213384
sg10
F11.374661554648853
sg11
F10.51056131229634
sa(dp1322
g8
F20.124035458330347
sg10
F19.34076228184589
sg11
F17.978798725180233
sa(dp1323
g8
F7.8890453428331755
sg10
F17.00666489436371
sg11
F19.4331191123708
sa(dp1324
g8
F14.352184333119109
sg10
F11.454318945109923
sg11
F10.725153813818359
sa(dp1325
g8
F5.377851934898552
sg10
F3.600522862914585
sg11
F3.3988852411318593
sa(dp1326
g8
F5.0173392335291
sg10
F5.4124928077094765
sg11
F5.011802191142051
sa(dp1327
g8
F8.65846337083027
sg10
F6.97978832307645
sg11
F6.532691991586792
sa(dp1328
g8
F5.35097343473479
sg10
F3.4688973372323595
sg11
F3.2800309709953743
sa(dp1329
g8
F4.923218369620112
sg10
F5.720677211539465
sg11
F5.285089197683779
sa(dp1330
g8
F17.514260293792187
sg10
F11.853828531772013
sg11
F11.183910272275169
sa(dp1331
g8
F4.439893849331846
sg10
F4.667898769244408
sg11
F4.325919465402166
sa(dp1332
g8
F8.45235115103301
sg10
F9.241836755142097
sg11
F8.554005838508743
sa(dp1333
g8
F5.0003540078129625
sg10
F3.3551072363790357
sg11
F3.166865464018125
sa(dp1334
g8
F4.522557843161294
sg10
F4.853666509035481
sg11
F4.495085786999563
sa(dp1335
g8
F4.797284466773766
sg10
F4.218891988006825
sg11
F3.934766612758908
sa(dp1336
g8
F13.874971902632648
sg10
F15.198914218653396
sg11
F14.06690954355106
sa(dp1337
g8
F4.931585855644004
sg10
F3.2084445109256055
sg11
F3.03319793182664
sa(dp1338
g8
F4.3688808944736115
sg10
F5.035727559262075
sg11
F4.653409672981183
sa(dp1339
g8
F19.38422852728102
sg10
F22.512766306376598
sg11
F20.79889420635582
sa(dp1340
g8
F18.29247542810138
sg10
F16.16820729926305
sg11
F15.076406222825964
sa(dp1341
g8
F13.859982819631936
sg10
F14.870486413086278
sg11
F13.772005136659502
sa(dp1342
g8
F8.661883760364287
sg10
F7.50303840697614
sg11
F7.001881816798244
sa(dp1343
g8
F13.703749483742028
sg10
F15.948906735988434
sg11
F14.733812284724275
sa(dp1344
g8
F26.550673315262276
sg10
F1.8897128190963148
sg11
F2.538827751079932
sa(dp1345
g8
F17.821779005572573
sg10
F17.74199758476237
sg11
F16.472295230573287
sa(dp1346
g8
F4.59382704349846
sg10
F8.087007943829834
sg11
F8.774315384448693
sa(dp1347
g8
F15.779275021595623
sg10
F7.34169667137106
sg11
F7.083692412619462
sa(dp1348
g8
F9.09608096500644
sg10
F9.503972691704943
sg11
F8.809485550917893
sa(dp1349
g8
F8.355084816920268
sg10
F9.724302237159659
sg11
F8.983429876333032
sa(dp1350
g8
F27.323474871280723
sg10
F0.3940687084472378
sg11
F1.2226070993678086
sa(dp1351
g8
F0.09117533976778401
sg10
F11.016726604985628
sg11
F15.353406234479763
sa(dp1352
g8
F51.951142815962044
sg10
F45.159243849087645
sg11
F42.13706459373187
sa(dp1353
g8
F16.73566102896751
sg10
F19.210259670019536
sg11
F17.75400030036072
sa(dp1354
g8
F9.40279756321524
sg10
F1.3409061938901894
sg11
F1.5012527815660035
sa(dp1355
g8
F38.750268546263364
sg10
F17.92655348101967
sg11
F17.303613676888858
sa(dp1356
g8
F18.044268648257443
sg10
F19.03395326926484
sg11
F17.637581104998162
sa(dp1357
g8
F8.620674708684023
sg10
F9.10296954778678
sg11
F8.434870196133422
sa(dp1358
g8
F4.830166873816931
sg10
F5.139393438262528
sg11
F4.761020058094191
sa(dp1359
g8
F4.864475200399406
sg10
F4.752414440387893
sg11
F4.41519432926865
sa(dp1360
g8
F15.344719079222838
sg10
F9.942416107916015
sg11
F9.401348421298325
sa(dp1361
g8
F4.589807365411019
sg10
F5.3395197740299265
sg11
F4.932781102458469
sa(dp1362
g8
F5.062406954357927
sg10
F0.024747026435298306
sg11
F0.1832525719155651
sa(dp1363
g8
F0.030259367355439912
sg10
F11.761716272622534
sg11
F16.428696273451713
sa(dp1364
g8
F15.201394014145484
sg10
F37.815369442447576
sg11
F44.50679784543513
sa(dp1365
g8
F5.461953988441878
sg10
F5.888252146050423
sg11
F5.452454916312883
sa(dp1366
g8
F4.959341441328933
sg10
F4.1102775600215145
sg11
F3.8425524855228175
sa(dp1367
g8
F5.467102510876169
sg10
F3.2287177374112463
sg11
F3.068410569820168
sa(dp1368
g8
F13.71385678507955
sg10
F9.261858208755427
sg11
F8.739356631424295
sa(dp1369
g8
F5.1837813942007305
sg10
F5.477863734127378
sg11
F5.075701207013165
sa(dp1370
g8
F4.785280207798124
sg10
F5.050851294933468
sg11
F4.68021606628026
sa(dp1371
g8
F8.632047710830804
sg10
F9.055069811668124
sg11
F8.392291138644971
sa(dp1372
g8
F8.574379045220972
sg10
F9.592277708272889
sg11
F8.872050146255942
sa(dp1373
g8
F5.0916891412858565
sg10
F2.14007312145627
sg11
F2.0805227882002866
sa(dp1374
g8
F2.888634372513245
sg10
F7.469318786106959
sg11
F8.854120913906794
sa(dp1375
g8
F9.828237728108245
sg10
F11.409835672524494
sg11
F10.541345411172708
sa(dp1376
g8
F17.874907661514868
sg10
F18.798874862395564
sg11
F17.42145055938605
sa(dp1377
g8
F8.630658959387574
sg10
F9.40551849887568
sg11
F8.706415662655113
sa(dp1378
g8
F4.968133841668383
sg10
F3.5165604418660257
sg11
F3.31057922082407
sa(dp1379
g8
F4.7512974623414275
sg10
F4.472148740480117
sg11
F4.1603420155729935
sa(dp1380
g8
F4.424715975869847
sg10
F10.894600370201276
sg11
F12.797370156280671
sa(dp1381
g8
F14.676758754495303
sg10
F15.507414301953506
sg11
F14.36898233898393
sa(dp1382
g8
F4.861313236431526
sg10
F5.13820269249325
sg11
F4.76094354750387
sa(dp1383
g8
F4.8343767432062466
sg10
F5.090794823730539
sg11
F4.717586520459482
sa(dp1384
g8
F4.818472978471075
sg10
F5.279499401103166
sg11
F4.8862496017499675
sa(dp1385
g8
F4.996599853236704
sg10
F3.2376549738389384
sg11
F3.0614529136490503
sa(dp1386
g8
F4.371793377277413
sg10
F5.085286908633856
sg11
F4.6979319191987425
sa(dp1387
g8
F25.84920525433518
sg10
F23.349598718717004
sg11
F21.754777324361633
sa(dp1388
g8
F14.161376946666062
sg10
F13.835360017981678
sg11
F12.853628609628464
sa(dp1389
g8
F15.397396173680136
sg10
F9.975593664029383
sg11
F9.432767290483037
sa(dp1390
g8
F4.535549933550809
sg10
F5.27753835526659
sg11
F4.875489988379646
sa(dp1391
g8
F19.593511911716107
sg10
F0.5915898512588463
sg11
F1.1537403553989252
sa(dp1392
g8
F7.516340354051178
sg10
F18.49071394860265
sg11
F21.716536745954265
sa(dp1393
g8
F6.667336536674189
sg10
F7.032607893814245
sg11
F6.516693046583814
sa(dp1394
g8
F8.759806439069541
sg10
F9.25572535083211
sg11
F8.57623873866679
sa(dp1395
g8
F4.843121352065882
sg10
F5.1181160017054985
sg11
F4.742357516220085
sa(dp1396
g8
F4.8332109533049685
sg10
F5.098861288735647
sg11
F4.724780845063638
sa(dp1397
g8
F8.62037210941726
sg10
F9.091971541203689
sg11
F8.425001167467162
sa(dp1398
g8
F8.617643450043413
sg10
F9.11266567381066
sg11
F8.443466094536888
sa(dp1399
g8
F4.8365349990938515
sg10
F5.0676341482307805
sg11
F4.696892203918348
sa(dp1400
g8
F4.796400478373416
sg10
F5.53226493763421
sg11
F5.112145522324026
sa(dp1401
g8
F20.293690748104318
sg10
F21.910945663482373
sg11
F20.28830350732157
sa(dp1402
g8
F8.855966176738718
sg10
F7.054483753750433
sg11
F6.605938458320565
sa(dp1403
g8
F5.319147039201039
sg10
F3.5826900868521827
sg11
F3.3810308125759065
sa(dp1404
g8
F5.043401044899949
sg10
F5.363821351747938
sg11
F4.968998585657304
sa(dp1405
g8
F6.850867995676192
sg10
F0.944130785482725
sg11
F1.0643601218875918
sa(dp1406
g8
F3.6849285093348905
sg10
F19.14417332207019
sg11
F24.748175198636396
sa(dp1407
g8
F5.202018821113394
sg10
F13.409683100281892
sg11
F15.886934274036214
sa(dp1408
g8
F8.937713700146496
sg10
F10.315787877907878
sg11
F9.532219487479278
sa(dp1409
g8
F20.016214241194234
sg10
F20.016214241194234
sg11
F20.016214241194234
sasb.