ccopy_reg
_reconstructor
p0
(cmyhmm_scaled
MyHmmScaled
p1
c__builtin__
object
p2
Ntp3
Rp4
(dp5
S'A'
p6
(dp7
Vq1
p8
(dp9
g8
F0.4294793915121138
sVq3
p10
F0.5680776472600377
sVq2
p11
F0.002442961227848548
ssg10
(dp12
g8
F0.9999999964518349
sg10
F3.5481647878889667e-09
sg11
F3.7510760975327944e-30
ssg11
(dp13
g8
F1.0
sg10
F1.231025676565072e-37
sg11
F0.0
sssS'symbols'
p14
(lp15
V11
p16
aV10
p17
aV13
p18
aV12
p19
aV15
p20
aV14
p21
aV1
p22
aV0
p23
aV3
p24
aV2
p25
aV5
p26
aV4
p27
aV7
p28
aV6
p29
aV9
p30
aV8
p31
asS'B'
p32
(dp33
g8
(dp34
g16
F0.01823326635134204
sg17
F0.08986290999286316
sg18
F1.4315180895996851e-12
sg19
F0.03926301250913268
sg20
I0
sg21
F0.026175343508391985
sg22
F0.4377713123158091
sg23
F0.022054845976905966
sg24
F0.03911749653584572
sg25
F0.0758037288498669
sg26
F0.05639611238114063
sg27
F0.07852241065268634
sg28
F0.03926301505134785
sg29
F1.0333853695492056e-07
sg30
F0.07753644251557704
sg31
F1.9122092289367195e-11
ssg10
(dp35
g16
F0.08309619728892156
sg17
F0.026120485570281876
sg18
F0.06911557832141238
sg19
F4.846969936958922e-09
sg20
I0
sg21
F2.8438961068783258e-24
sg22
F0.24307635592578214
sg23
F0.1685230882308504
sg24
F0.0002561599227285339
sg25
F0.00479212952451158
sg26
F0.06199432409132032
sg27
F6.372143833272879e-06
sg28
F3.718508081201176e-10
sg29
F0.2721617312018896
sg30
F0.0017419942693761871
sg31
F0.06911557829027122
ssg11
(dp36
g16
F2.2535390905988055e-37
sg17
F6.283156383869725e-38
sg18
F1.4488759879252847e-36
sg19
F1.5141306404918026e-40
sg20
I0
sg21
F1.6843978001943541e-59
sg22
F8.752598340783895e-36
sg23
F4.226992649736759e-36
sg24
F2.4886289896731265e-39
sg25
F7.503748314000638e-35
sg26
F2.664545743191252e-37
sg27
F1.689821226850888e-39
sg28
F7.33550443650251e-45
sg29
F1.0
sg30
F3.303744495446092e-38
sg31
F1.6111793017521172e-38
sssS'bwk'
p37
(lp38
(dp39
a(dp40
a(dp41
a(dp42
a(dp43
a(dp44
a(dp45
a(dp46
a(dp47
a(dp48
a(dp49
a(dp50
a(dp51
a(dp52
a(dp53
a(dp54
a(dp55
a(dp56
a(dp57
a(dp58
a(dp59
a(dp60
a(dp61
a(dp62
a(dp63
a(dp64
a(dp65
a(dp66
a(dp67
a(dp68
a(dp69
a(dp70
a(dp71
a(dp72
a(dp73
a(dp74
a(dp75
a(dp76
a(dp77
a(dp78
a(dp79
a(dp80
a(dp81
a(dp82
a(dp83
a(dp84
a(dp85
a(dp86
a(dp87
a(dp88
a(dp89
a(dp90
a(dp91
a(dp92
a(dp93
a(dp94
a(dp95
a(dp96
a(dp97
a(dp98
a(dp99
a(dp100
a(dp101
a(dp102
a(dp103
a(dp104
a(dp105
a(dp106
a(dp107
a(dp108
a(dp109
a(dp110
a(dp111
a(dp112
a(dp113
a(dp114
a(dp115
a(dp116
a(dp117
a(dp118
a(dp119
a(dp120
a(dp121
a(dp122
a(dp123
a(dp124
a(dp125
a(dp126
a(dp127
a(dp128
a(dp129
a(dp130
a(dp131
a(dp132
a(dp133
a(dp134
a(dp135
a(dp136
a(dp137
a(dp138
a(dp139
a(dp140
a(dp141
a(dp142
a(dp143
a(dp144
a(dp145
a(dp146
a(dp147
a(dp148
a(dp149
a(dp150
a(dp151
a(dp152
a(dp153
a(dp154
a(dp155
a(dp156
a(dp157
a(dp158
a(dp159
a(dp160
a(dp161
g8
I1
sg10
I1
sg11
I1
sasS'fwd'
p162
(lp163
(dp164
g8
F8.50041720171404e-111
sg10
F6.107893208984276e-20
sg11
F1.0
sa(dp165
a(dp166
a(dp167
a(dp168
a(dp169
a(dp170
a(dp171
a(dp172
a(dp173
a(dp174
a(dp175
a(dp176
a(dp177
a(dp178
a(dp179
a(dp180
a(dp181
a(dp182
a(dp183
a(dp184
a(dp185
a(dp186
a(dp187
a(dp188
a(dp189
a(dp190
a(dp191
a(dp192
a(dp193
a(dp194
a(dp195
a(dp196
a(dp197
a(dp198
a(dp199
a(dp200
a(dp201
a(dp202
a(dp203
a(dp204
a(dp205
a(dp206
a(dp207
a(dp208
a(dp209
a(dp210
a(dp211
a(dp212
a(dp213
a(dp214
a(dp215
a(dp216
a(dp217
a(dp218
a(dp219
a(dp220
a(dp221
a(dp222
a(dp223
a(dp224
a(dp225
a(dp226
a(dp227
a(dp228
a(dp229
a(dp230
a(dp231
a(dp232
a(dp233
a(dp234
a(dp235
a(dp236
a(dp237
a(dp238
a(dp239
a(dp240
a(dp241
a(dp242
a(dp243
a(dp244
a(dp245
a(dp246
a(dp247
a(dp248
a(dp249
a(dp250
a(dp251
a(dp252
a(dp253
a(dp254
a(dp255
a(dp256
a(dp257
a(dp258
a(dp259
a(dp260
a(dp261
a(dp262
a(dp263
a(dp264
a(dp265
a(dp266
a(dp267
a(dp268
a(dp269
a(dp270
a(dp271
a(dp272
a(dp273
a(dp274
a(dp275
a(dp276
a(dp277
a(dp278
a(dp279
a(dp280
a(dp281
a(dp282
a(dp283
a(dp284
a(dp285
a(dp286
asS'logpi'
p287
(dp288
g8
F-1.0986122886681098
sg10
F-1.0986122886681098
sg11
F-1.0986122886681098
ssS'M'
p289
I16
sS'fwd_scaled'
p290
(lp291
(dp292
g8
F8.50041720171404e-111
sg10
F6.107893208984276e-20
sg11
F1.0
sa(dp293
g8
F1.0
sg10
F2.7438803965616084e-35
sg11
F1.3048317661978205e-86
sa(dp294
g8
F5.75899715115094e-07
sg10
F0.9844443182683789
sg11
F0.015555105831906012
sa(dp295
g8
F0.9999999858776423
sg10
F1.4122357629960499e-08
sg11
F5.976215983681614e-42
sa(dp296
g8
F0.14595364189621243
sg10
F0.8540463581037876
sg11
F6.332086641258721e-38
sa(dp297
g8
F0.9982191599920761
sg10
F0.0017808400079239587
sg11
F9.233494012032102e-40
sa(dp298
g8
F6.612701439981862e-11
sg10
F0.9999999999338729
sg11
F5.731083307203204e-37
sa(dp299
g8
F1.0
sg10
F4.2777902421677384e-30
sg11
F6.68041899181405e-69
sa(dp300
g8
F0.5847478102853599
sg10
F0.4152521897146401
sg11
F4.087781453387657e-37
sa(dp301
g8
F0.7870478544014053
sg10
F0.21295214559859466
sg11
F2.0963208589882445e-37
sa(dp302
g8
F0.9954510251257579
sg10
F0.004548974874242126
sg11
F1.2082142786886216e-39
sa(dp303
g8
F0.4253448383255759
sg10
F0.5746551616744241
sg11
F6.752428890555399e-38
sa(dp304
g8
F1.632003248291016e-09
sg10
F0.9999999983679967
sg11
F6.373080111091513e-39
sa(dp305
g8
F0.9999999973855537
sg10
F2.6144462665278105e-09
sg11
F4.986984901650495e-46
sa(dp306
g8
F0.091690196389904
sg10
F0.908309803610096
sg11
F6.228558424550356e-37
sa(dp307
g8
F0.9708636019114047
sg10
F0.029136398088595142
sg11
F2.868214127782781e-38
sa(dp308
g8
F0.9765463529249919
sg10
F0.023453647075007977
sg11
F1.2160503887181627e-38
sa(dp309
g8
F0.7521633636200129
sg10
F0.247836636379987
sg11
F1.629834795525872e-38
sa(dp310
g8
F6.996721222404984e-10
sg10
F0.999999999300328
sg11
F6.373080161241352e-39
sa(dp311
g8
F0.9999999998184329
sg10
F1.8156695571349922e-10
sg11
F7.260622492518457e-45
sa(dp312
g8
F0.7420586666079864
sg10
F0.25794133339201364
sg11
F1.6962857734666732e-38
sa(dp313
g8
F1.182296941884145e-10
sg10
F0.9999999998817702
sg11
F5.731083293446521e-37
sa(dp314
g8
F0.9999999978554504
sg10
F2.1445497684039e-09
sg11
F3.61279734116009e-47
sa(dp315
g8
F5.758997179405257e-07
sg10
F0.9844443182683762
sg11
F0.015555105831905973
sa(dp316
g8
F0.9999998191575795
sg10
F1.8084242049682978e-07
sg11
F1.7598026337032188e-43
sa(dp317
g8
F0.42280488573424446
sg10
F0.5771951142657555
sg11
F6.782274353579364e-38
sa(dp318
g8
F0.999999988623389
sg10
F1.1376610901020008e-08
sg11
F6.135579935961545e-45
sa(dp319
g8
F0.5847478166050455
sg10
F0.41525218339495457
sg11
F4.08778139117608e-37
sa(dp320
g8
F0.7870478517012982
sg10
F0.21295214829870188
sg11
F2.0963208855683525e-37
sa(dp321
g8
F0.6951052218914693
sg10
F0.3048947781085306
sg11
F3.0014127505345064e-37
sa(dp322
g8
F0.1682203605971232
sg10
F0.8317796394028769
sg11
F5.703767640016782e-37
sa(dp323
g8
F0.9454659623164675
sg10
F0.05453403768353237
sg11
F5.368381572880441e-38
sa(dp324
g8
F4.5158942055813794e-10
sg10
F0.9999999995484106
sg11
F6.373080174585652e-39
sa(dp325
g8
F0.9999999977519707
sg10
F2.248029293175263e-09
sg11
F1.3799418743532967e-46
sa(dp326
g8
F0.42280478602568033
sg10
F0.5771952139743197
sg11
F6.782275525195037e-38
sa(dp327
g8
F0.922248698185093
sg10
F0.07775130181490705
sg11
F5.1131171642851625e-39
sa(dp328
g8
F0.46632382925184346
sg10
F0.5336761707481564
sg11
F6.270909289511131e-38
sa(dp329
g8
F0.9929563015036735
sg10
F0.007043698496326431
sg11
F3.6520939375692784e-39
sa(dp330
g8
F0.9999998510686587
sg10
F1.4893134135782202e-07
sg11
F1.2719222843237207e-40
sa(dp331
g8
F0.5847478930164303
sg10
F0.41525210698356985
sg11
F4.087780638975247e-37
sa(dp332
g8
F0.7870478190542733
sg10
F0.21295218094572677
sg11
F2.0963212069487255e-37
sa(dp333
g8
F0.9954510254908845
sg10
F0.004548974509115536
sg11
F1.2082141817104726e-39
sa(dp334
g8
F0.0925600300098808
sg10
F0.9074399699901192
sg11
F6.2225937089043095e-37
sa(dp335
g8
F0.9705805810845269
sg10
F0.029419418915472995
sg11
F2.896074963235603e-38
sa(dp336
g8
F0.6009294599170105
sg10
F0.39907054008298953
sg11
F3.928487777824617e-37
sa(dp337
g8
F0.7801008931484769
sg10
F0.21989910685152328
sg11
F2.1647073966505447e-37
sa(dp338
g8
F0.5464639754959394
sg10
F0.45353602450406066
sg11
F5.329230385886625e-38
sa(dp339
g8
F0.8032213531224135
sg10
F0.19677864687758645
sg11
F1.9371074217534945e-37
sa(dp340
g8
F0.8178244456087079
sg10
F0.182175554391292
sg11
F1.198031337628346e-38
sa(dp341
g8
F0.9999115838304234
sg10
F8.84161695765521e-05
sg11
F6.410152228214521e-40
sa(dp342
g8
F6.587154805939807e-11
sg10
F0.9999999999341285
sg11
F5.7310833072706555e-37
sa(dp343
g8
F0.9999999999999999
sg10
F1.4058040052275057e-16
sg11
F7.284075092875474e-55
sa(dp344
g8
F0.58474781028536
sg10
F0.41525218971464
sg11
F4.087781453387656e-37
sa(dp345
g8
F0.7870478544014053
sg10
F0.2129521455985947
sg11
F2.0963208589882454e-37
sa(dp346
g8
F1.0
sg10
F8.815977932535971e-22
sg11
F1.4275223827849668e-58
sa(dp347
g8
F0.09169019589177865
sg10
F0.9083098041082214
sg11
F6.228558427966155e-37
sa(dp348
g8
F0.985522829101196
sg10
F0.01447717089880385
sg11
F9.520543706902933e-40
sa(dp349
g8
F0.5927507209446652
sg10
F0.4072492790553348
sg11
F4.009000050802478e-37
sa(dp350
g8
F0.7836204591905578
sg10
F0.21637954080944222
sg11
F2.13006045866881e-37
sa(dp351
g8
F0.9671304115905028
sg10
F0.03286958840949714
sg11
F1.4071015135180082e-35
sa(dp352
g8
F0.44117552131989946
sg10
F0.5588244786801005
sg11
F6.566412007577473e-38
sa(dp353
g8
F2.244729058344597e-06
sg10
F0.9844426755295799
sg11
F0.015555079741361822
sa(dp354
g8
F0.9999993011292263
sg10
F6.98870773562652e-07
sg11
F6.8593222919313975e-43
sa(dp355
g8
F5.759006358737794e-07
sg10
F0.9844443182674725
sg11
F0.01555510583189162
sa(dp356
g8
F0.9999999999999615
sg10
F3.85420838282309e-14
sg11
F3.253850456552343e-47
sa(dp357
g8
F5.758997151151449e-07
sg10
F0.984444318268379
sg11
F0.015555105831906014
sa(dp358
g8
F0.9999998191575804
sg10
F1.808424196197918e-07
sg11
F1.7598026250695741e-43
sa(dp359
g8
F0.14595368943918358
sg10
F0.8540463105608164
sg11
F6.33208628876472e-38
sa(dp360
g8
F0.952960586788143
sg10
F0.04703941321185701
sg11
F4.630603715718857e-38
sa(dp361
g8
F0.6104694756626792
sg10
F0.3895305243373208
sg11
F3.834574968707527e-37
sa(dp362
g8
F0.7759738160070261
sg10
F0.22402618399297392
sg11
F2.205334730832098e-37
sa(dp363
g8
F0.7004404086854298
sg10
F0.29955959131457033
sg11
F2.9488926717062618e-37
sa(dp364
g8
F1.139356265991007e-06
sg10
F0.9844437636209301
sg11
F0.015555097022803931
sa(dp365
g8
F0.9999999962937394
sg10
F3.7062606721007574e-09
sg11
F9.786462770285862e-46
sa(dp366
g8
F5.758997199980703e-07
sg10
F0.984444318268374
sg11
F0.015555105831905936
sa(dp367
g8
F0.9999999999660071
sg10
F3.399303429206461e-11
sg11
F2.436208726900888e-46
sa(dp368
g8
F0.7420586665433657
sg10
F0.2579413334566342
sg11
F1.6962857738916337e-38
sa(dp369
g8
F0.9999256494755075
sg10
F7.43505244924787e-05
sg11
F5.390396147253286e-40
sa(dp370
g8
F0.9474660635391932
sg10
F0.05253393646080685
sg11
F2.2489049976137878e-35
sa(dp371
g8
F0.6134215632226961
sg10
F0.38657843677730386
sg11
F3.8055143420888885e-37
sa(dp372
g8
F0.774691956532653
sg10
F0.2253080434673471
sg11
F2.217953475637251e-37
sa(dp373
g8
F0.7010555808594588
sg10
F0.29894441914054115
sg11
F2.942836859169477e-37
sa(dp374
g8
F0.8503733334245118
sg10
F0.14962666657548812
sg11
F9.83981829397541e-39
sa(dp375
g8
F0.9999048347319816
sg10
F9.516526801840734e-05
sg11
F6.899460335731102e-40
sa(dp376
g8
F0.5848006727101541
sg10
F0.41519932728984577
sg11
F4.087261070723569e-37
sa(dp377
g8
F0.7870252683969621
sg10
F0.21297473160303804
sg11
F2.096543197732808e-37
sa(dp378
g8
F0.6951161398337367
sg10
F0.3048838601662634
sg11
F3.0013052732875678e-37
sa(dp379
g8
F0.7382989753675718
sg10
F0.26170102463242817
sg11
F2.576209393077413e-37
sa(dp380
g8
F0.7183166108435152
sg10
F0.28168338915648483
sg11
F2.772917662254836e-37
sa(dp381
g8
F0.7276293812422154
sg10
F0.2723706187577847
sg11
F2.681241877631368e-37
sa(dp382
g8
F0.8422823833146087
sg10
F0.15771761668539125
sg11
F1.0371899114046885e-38
sa(dp383
g8
F8.226007790417869e-07
sg10
F0.984444075424249
sg11
F0.015555101974971784
sa(dp384
g8
F0.9999999999516123
sg10
F4.838772020329489e-11
sg11
F3.4798201932131992e-46
sa(dp385
g8
F0.5847478103122392
sg10
F0.4152521896877608
sg11
F4.0877814531230545e-37
sa(dp386
g8
F0.20945012322082854
sg10
F0.7905498767791713
sg11
F5.421042525056339e-37
sa(dp387
g8
F0.9313537622809006
sg10
F0.06864623771909942
sg11
F6.757599770726831e-38
sa(dp388
g8
F0.9785094293526672
sg10
F0.021490570647332903
sg11
F1.1142666510727031e-38
sa(dp389
g8
F0.09585549037035306
sg10
F0.9041445096296469
sg11
F6.199995727495452e-37
sa(dp390
g8
F0.9695071699906093
sg10
F0.03049283000939071
sg11
F3.0017425573515025e-38
sa(dp391
g8
F0.6015138529828796
sg10
F0.39848614701712026
sg11
F3.922734957713262e-37
sa(dp392
g8
F0.64821918756098
sg10
F0.35178081243902004
sg11
F4.1335657779929734e-38
sa(dp393
g8
F1.2908874552758747e-06
sg10
F0.9844436144587855
sg11
F0.015555094653759304
sa(dp394
g8
F0.9999999685457034
sg10
F3.145429662132824e-08
sg11
F1.3395778834318958e-41
sa(dp395
g8
F5.758997565559421e-07
sg10
F0.984444318268338
sg11
F0.015555105831905365
sa(dp396
g8
F0.9999985098740863
sg10
F1.490125913683858e-06
sg11
F1.0921349002081936e-43
sa(dp397
g8
F0.9474577664676802
sg10
F0.05254223353231977
sg11
F2.2492601837450107e-35
sa(dp398
g8
F0.6134260129178917
sg10
F0.38657398708210833
sg11
F3.8054705388723464e-37
sa(dp399
g8
F0.7746900226734429
sg10
F0.22530997732655722
sg11
F2.2179725127285627e-37
sa(dp400
g8
F0.9848222935782642
sg10
F0.015177706421735656
sg11
F7.869503494396665e-39
sa(dp401
g8
F0.15032601436337614
sg10
F0.8496739856366238
sg11
F6.299668914058931e-38
sa(dp402
g8
F0.9514958392904083
sg10
F0.048504160709591744
sg11
F4.774794832197835e-38
sa(dp403
g8
F0.1012999394885497
sg10
F0.8987000605114503
sg11
F6.162661471732521e-37
sa(dp404
g8
F0.6825126125386022
sg10
F0.3174873874613979
sg11
F2.177108091173839e-37
sa(dp405
g8
F0.7440318714175681
sg10
F0.25596812858243184
sg11
F2.5197742270583355e-37
sa(dp406
g8
F1.0291549177128874e-06
sg10
F0.9844438720993861
sg11
F0.015555098745696187
sa(dp407
g8
F0.9999999999395601
sg10
F6.043988860441277e-11
sg11
F4.353599670924536e-46
sa(dp408
g8
F5.758997151947233e-07
sg10
F0.9844443182683787
sg11
F0.015555105831906012
sa(dp409
g8
F0.9999999934639918
sg10
F6.536008148456229e-09
sg11
F3.3499759151644e-45
sa(dp410
g8
F0.09169019713707158
sg10
F0.9083098028629284
sg11
F6.2285584194268005e-37
sa(dp411
g8
F0.9999999980176963
sg10
F1.9823036217246857e-09
sg11
F1.0690865433343267e-45
sa(dp412
g8
F0.14595363843427656
sg10
F0.8540463615657234
sg11
F6.332086666926272e-38
sa(dp413
g8
F1.0
sg10
F9.921054778156927e-23
sg11
F1.6064612829474725e-59
sa(dp414
g8
F0.5847478102853599
sg10
F0.4152521897146401
sg11
F4.087781453387657e-37
sasS'N'
p415
I3
sS'states'
p416
(lp417
g8
ag10
ag11
asS'clist'
p418
(lp419
F1.0
aF25.59373260496697
aF6.398437496958806
aF13.107076662662186
aF18.24239427022569
aF14.07360222830185
aF25.639390663692783
aF38.39059651517874
aF3.0590130993339217
aF2.6827661586804714
aF45.88943674274555
aF16.943222316117932
aF60.1717205660923
aF2.2867079538813604
aF9.538535252856127
aF2.3408971643025365
aF27.8642583268494
aF18.466637729060373
aF34.02682475011288
aF13.107072602480647
aF18.768783569373817
aF34.49017187088046
aF2.2867079530074257
aF6.398437510680556
aF2.2867082853585434
aF16.940698780296046
aF33.587113908464
aF3.0590130875802797
aF2.6827661637022553
aF2.8537653018029716
aF12.566242005599394
aF2.3881328643201423
aF27.06996553132008
aF2.286707953199881
aF16.940698681231943
aF13.380827013905462
aF16.98393644279105
aF17.422419540439968
aF58.0248704385552
aF3.059012945466866
aF2.682766224420696
aF45.889435120340316
aF9.57294784235268
aF2.3414235394732352
aF3.028917721968892
aF2.6956864372185874
aF17.06355860995606
aF2.6526859407545116
aF16.503271309488234
aF23.712083420203054
aF25.59599411107712
aF25.593731534883574
aF3.0590130993339217
aF2.6827661586804714
aF68.92580712003047
aF9.538535233149158
aF11.488834069139834
aF3.0441289174493185
aF2.689140586170719
aF22.680158353097642
aF16.958950678827314
aF14.503131873072286
aF2.286709248811537
aF6.398441968636974
aF25.59374099743611
aF6.398437496959053
aF2.2867082853585416
aF18.242396296083292
aF2.37419401650063
aF3.011174761240546
aF2.7033621653930253
aF2.8438426756472865
aF9.134872566006061
aF25.676516644864975
aF6.398437520673052
aF12.797616331789001
aF18.768783571306066
aF21.975759848331215
aF28.40729094812073
aF3.005684332813549
aF2.7057462266901346
aF2.84269855010117
aF15.53000995898273
aF24.545221086014468
aF3.0589147833612715
aF2.6828081651719216
aF2.853744996111027
aF2.773431569441547
aF2.8105956914369217
aF2.7932753720725376
aF15.771941697953345
aF7.596544860961999
aF12.797618108730784
aF3.05901309928393
aF14.197384862836577
aF2.414379384000711
aF26.615130245496776
aF9.70332372342074
aF2.3434199188705542
aF3.027830840825918
aF17.164656135786327
aF9.870786026891295
aF13.107081710493544
aF6.398437698216897
aF54.63417302697713
aF28.409707424302947
aF3.005676057065457
aF2.7057498233705735
aF22.59818222106402
aF18.428705806578364
aF2.376918221368012
aF9.918718470457964
aF32.91280914310817
aF2.762769265291687
aF8.599678088959424
aF12.797619596502155
aF6.398437497345527
aF12.940437433179367
aF9.53853528241577
aF26.986528567226934
aF18.242394122708845
aF41.82687423500958
aF3.0590130993339217
asS'logB'
p420
(dp421
g8
(dp422
g16
F-2.9212348804951955
sg17
F-2.5633371230760758
sg18
F-2.2705196883974508
sg19
F-5.11102215480017
sg20
F-2.6570023729358256
sg21
F-2.394531914401664
sg22
F-2.5567896167969173
sg23
F-3.093728761473657
sg24
F-3.955377711169584
sg25
F-2.5311773915230478
sg26
F-2.3856993883549533
sg27
F-2.744681015196079
sg28
F-2.319990802883572
sg29
F-2.6363994576488694
sg30
F-3.0060044723555492
sg31
F-6.771947206302559
ssg10
(dp423
V11
p424
F-2.2061636400830515
sV10
p425
F-2.7886349913133275
sV13
p426
F-2.2366278495501097
sV12
p427
F-4.803495959222991
sV15
p428
F-2.3946538192158955
sV14
p429
F-3.4340383811510673
sV1
p430
F-4.3946466318475315
sV0
p431
F-2.883896900512308
sV3
p432
F-2.4577642134121223
sV2
p433
F-2.428127950235306
sV5
p434
F-3.4036523078985326
sV4
p435
F-2.347181559984261
sV7
p436
F-3.329045325183329
sV6
p437
F-2.1769737091555577
sV9
p438
F-3.144112388866956
sV8
p439
F-3.626896918534498
ssg11
(dp440
V11
p441
F-3.776462439005156
sV10
p442
F-2.56023877712607
sV13
p443
F-2.2875507466486336
sV12
p444
F-4.0011284607127555
sV15
p445
F-2.352279906055419
sV14
p446
F-3.184664319984376
sV1
p447
F-4.212541507026543
sV0
p448
F-2.2779335809252834
sV3
p449
F-2.523757470272191
sV2
p450
F-2.89618699908023
sV5
p451
F-2.2244950581471348
sV4
p452
F-2.159180925692466
sV7
p453
F-3.3688691655609246
sV6
p454
F-3.3780880383582845
sV9
p455
F-2.504124323723734
sV8
p456
F-4.078634034718041
sssS'logA'
p457
(dp458
g8
(dp459
Vq1
p460
F-0.12159375102178108
sVq3
p461
F-2.1714793139375113
sVq2
p462
F-7.635223578707189
ssg10
(dp463
Vq1
p464
F-0.051018605614936104
sVq3
p465
F-3.3863773220688
sVq2
p466
F-4.140933416759925
ssg11
(dp467
Vq1
p468
F-0.02848274252499949
sVq3
p469
F-3.5815404521278484
sVq2
p470
F-8.301505382807537
sssS'model'
p471
(dp472
VA
p473
(dp474
g8
(dp475
g460
F0.8855080321744565
sg461
F0.11400883724062709
sg462
F0.00048313058491640786
ssg10
(dp476
g464
F0.9502609901778785
sg465
F0.033831014039701346
sg466
F0.01590799578242019
ssg11
(dp477
g468
F0.9719190668704077
sg469
F0.027832790133992855
sg470
F0.0002481429955994003
sssVB
p478
(dp479
Vq1
p480
(dp481
g16
F0.05386712674749742
sg17
F0.077047194979542
sg18
F0.103258503890451
sg19
F0.00602991626464192
sg20
F0.07015821501075101
sg21
F0.09121536553027698
sg22
F0.07755331708317478
sg23
F0.045332604399164866
sg24
F0.01915143347300857
sg25
F0.07956528562270637
sg26
F0.09202459613648334
sg27
F0.06426879844520396
sg28
F0.0982744894421265
sg29
F0.07161867194567796
sg30
F0.0494890190022545
sg31
F0.0011454620270388422
ssVq3
p482
(dp483
g424
F0.1101223079879357
sg425
F0.061505111653083845
sg426
F0.1068181044446883
sg427
F0.008201026421244215
sg428
F0.09120424661582534
sg429
F0.032256413698180074
sg430
F0.012343241263237551
sg431
F0.05591643692155573
sg432
F0.08562617897768209
sg433
F0.08820179627603751
sg434
F0.03325160282102376
sg435
F0.09563833362215457
sg436
F0.03582729215985531
sg437
F0.11338414535406975
sg438
F0.04310516769831538
sg439
F0.026598594085111
ssVq2
p484
(dp485
g441
F0.022903571062053995
sg442
F0.07728628404311588
sg443
F0.10151479306384253
sg444
F0.018294982067217063
sg445
F0.09515197715995265
sg446
F0.04139213798270078
sg447
F0.014808684096303926
sg448
F0.10249578728310807
sg449
F0.08015784944613936
sg450
F0.055233424144602555
sg451
F0.10812200017652181
sg452
F0.11541961957709766
sg453
F0.034428548326521306
sg454
F0.03411261443362269
sg455
F0.08174715069273093
sg456
F0.016930576444468923
sssVpi
p486
(dp487
Vq1
p488
F0.3333333333333333
sVq3
p489
F0.3333333333333333
sVq2
p490
F0.3333333333333333
sssS'pi'
p491
(dp492
g8
F3.715679191913613e-111
sg10
F6.107893185739367e-20
sg11
F1.0
ssS'bwk_scaled'
p493
(lp494
(dp495
g8
F0.43711727362797836
sg10
F0.9999999961942826
sg11
F0.9999999999999991
sa(dp496
g8
F25.59373260496695
sg10
F1.5040497440888592e-05
sg11
F1.4869408039177214e-05
sa(dp497
g8
F2.8215327019768464
sg10
F6.398439556522268
sg11
F6.398439580705434
sa(dp498
g8
F13.107076818330375
sg10
F2.0842573246000042
sg11
F2.0842572497157312
sa(dp499
g8
F8.687810904600001
sg10
F19.87524033974146
sg11
F19.875240415380993
sa(dp500
g8
F14.098709774556335
sg10
F9.666504924369962e-08
sg11
F9.285160135449174e-10
sa(dp501
g8
F11.207420587464467
sg10
F25.639390664647117
sg11
F25.63939076222337
sa(dp502
g8
F38.39059651517873
sg10
F54.032864479092076
sg11
F54.032864584418064
sa(dp503
g8
F3.218428265542533
sg10
F2.834528625378896
sg11
F2.8345286227252524
sa(dp504
g8
F2.118898783017884
sg10
F4.766758348262423
sg11
F4.76675836616388
sa(dp505
g8
F45.62219172023702
sg10
F104.37059765708926
sg11
F104.37059805429419
sa(dp506
g8
F39.83408430851861
sg10
F2.8897977747267665e-07
sg11
F1.8488562633827942e-08
sa(dp507
g8
F30.60017229891059
sg10
F60.171720614353156
sg11
F60.17172081416383
sa(dp508
g8
F2.2867079584841137
sg10
F0.5261999935083602
sg11
F0.5261999815450383
sa(dp509
g8
F10.463979561188877
sg10
F9.44511539760223
sg11
F9.445115390527764
sa(dp510
g8
F2.264312063721724
sg10
F4.892814747819436
sg11
F4.89281476558737
sa(dp511
g8
F27.047383355348888
sg10
F61.876720084430836
sg11
F61.8767203199161
sa(dp512
g8
F24.551365538638624
sg10
F1.7775204982776108e-07
sg11
F1.1037317811807309e-08
sa(dp513
g8
F16.760711504326007
sg10
F34.026824762193485
sg11
F34.02682487887637
sa(dp514
g8
F13.107072599416126
sg10
F29.985254093282478
sg11
F29.985254207397855
sa(dp515
g8
F25.29285670961367
sg10
F1.7341553177166913e-07
sg11
F1.6657436289687044e-09
sa(dp516
g8
F15.076258620262706
sg10
F34.49017187317576
sg11
F34.49017200443552
sa(dp517
g8
F2.2867079579113803
sg10
F1.8510965485036696e-06
sg11
F1.8358103292129949e-06
sa(dp518
g8
F3.898900427034562
sg10
F6.3984389499017125
sg11
F6.398438966769066
sa(dp519
g8
F2.286708469441372
sg10
F1.268790063608778
sg11
F1.268790056675712
sa(dp520
g8
F9.717809794916505
sg10
F22.231583399129548
sg11
F22.231583483736646
sa(dp521
g8
F33.58711375904978
sg10
F46.72057048184552
sg11
F46.72057057025627
sa(dp522
g8
F3.1808716997426796
sg10
F2.887414814901937
sg11
F2.8874148128615675
sa(dp523
g8
F2.1584328722232597
sg10
F4.620644668009082
sg11
F4.62064468465232
sa(dp524
g8
F3.938496419523745
sg10
F0.380773573464864
sg11
F0.38077354930005153
sa(dp525
g8
F6.067436999271911
sg10
F13.880570067776551
sg11
F13.880570120602066
sa(dp526
g8
F2.5258792579416722
sg10
F1.861432367312441e-08
sg11
F1.4624759327083067e-09
sa(dp527
g8
F17.1730318328083
sg10
F27.069965535789436
sg11
F27.069965602547153
sa(dp528
g8
F2.286707955073478
sg10
F1.4532686861962858
sg11
F1.4532686805128698
sa(dp529
g8
F11.130754528869574
sg10
F21.196576302334357
sg11
F21.196576370335855
sa(dp530
g8
F13.833442078579662
sg10
F8.012123925583545
sg11
F8.012123885921927
sa(dp531
g8
F10.487068214428502
sg10
F22.660870577113432
sg11
F22.660870659404893
sa(dp532
g8
F17.26581382924912
sg10
F39.49926281525118
sg11
F39.49926296557415
sa(dp533
g8
F58.024866872689856
sg10
F81.96788190602878
sg11
F81.96788206725938
sa(dp534
g8
F3.230280499962915
sg10
F2.8178381508074772
sg11
F2.8178381479602916
sa(dp535
g8
F2.10642223716135
sg10
F4.81287015753383
sg11
F4.812870175832367
sa(dp536
g8
F46.06352234350109
sg10
F7.793968884383259
sg11
F7.793968624387238
sa(dp537
g8
F7.723296323741782
sg10
F9.761614647576517
sg11
F9.76161466125646
sa(dp538
g8
F2.3317751448269766
sg10
F2.6597352134463192
sg11
F2.659735215629407
sa(dp539
g8
F2.597581154127272
sg10
F3.678434097448825
sg11
F3.6784341047275744
sa(dp540
g8
F2.777066028024642
sg10
F2.4069890778667604
sg11
F2.406989075314037
sa(dp541
g8
F15.63846558964022
sg10
F18.780648224138066
sg11
F18.78064824516485
sa(dp542
g8
F2.5168171899147445
sg10
F3.207282100593246
sg11
F3.2072821052288636
sa(dp543
g8
F13.367407243616668
sg10
F30.580825785690127
sg11
F30.580825902072082
sa(dp544
g8
F23.714180137161073
sg10
F1.6259164340903195e-07
sg11
F1.5617739365511164e-09
sa(dp545
g8
F11.188451946215938
sg10
F25.595994112026187
sg11
F25.595994209437283
sa(dp546
g8
F25.593731534883595
sg10
F36.165273213781944
sg11
F36.1652732849704
sa(dp547
g8
F3.231237218684995
sg10
F2.816491375997391
sg11
F2.816491373134586
sa(dp548
g8
F2.10541537491248
sg10
F4.816591550879609
sg11
F4.816591569210193
sa(dp549
g8
F68.92580712003053
sg10
F9.650956983952232
sg11
F9.650956581290213
sa(dp550
g8
F6.36715259008578
sg10
F9.858673466244383
sg11
F9.858673489790617
sa(dp551
g8
F11.427011090276812
sg10
F15.697388175356487
sg11
F15.697388204095112
sa(dp552
g8
F3.12436772693504
sg10
F2.9273414493886625
sg11
F2.92734144800244
sa(dp553
g8
F2.1989788015808007
sg10
F4.464265911241457
sg11
F4.46426592655007
sa(dp554
g8
F21.759166360390328
sg10
F49.77874425206956
sg11
F49.778744441513226
sa(dp555
g8
F38.44034254971098
sg10
F2.239476537226926e-05
sg11
F2.2137798741276758e-05
sa(dp556
g8
F6.339580120135764
sg10
F14.503150197216714
sg11
F14.503150252411576
sa(dp557
g8
F2.286710846925987
sg10
F1.3322027992201382e-06
sg11
F1.3169165571262018e-06
sa(dp558
g8
F2.7968704259221626
sg10
F6.39844404240674
sg11
F6.3984440667574045
sa(dp559
g8
F25.593740997437127
sg10
F1.802774971642462e-05
sg11
F1.785666027870702e-05
sa(dp560
g8
F3.388375264874464
sg10
F6.398439230137742
sg11
F6.39843925047179
sa(dp561
g8
F2.2867085757364403
sg10
F0.6810128726753802
sg11
F0.6810128617607469
sa(dp562
g8
F16.27081950215484
sg10
F18.579332248534858
sg11
F18.579332263903975
sa(dp563
g8
F2.3289433080211923
sg10
F3.2909176480419484
sg11
F3.290917654519855
sa(dp564
g8
F3.1696514724492393
sg10
F2.762811183159215
sg11
F2.762811180350978
sa(dp565
g8
F2.0980988447340594
sg10
F4.799851425039365
sg11
F4.799851443306233
sa(dp566
g8
F4.060076962756357
sg10
F2.3653388119242352e-06
sg11
F2.338197942996212e-06
sa(dp567
g8
F3.993013183979677
sg10
F9.13487842388168
sg11
F9.13487845864644
sa(dp568
g8
F25.67651674002881
sg10
F1.4961262009553093e-05
sg11
F1.478961921024332e-05
sa(dp569
g8
F2.7973443045018986
sg10
F6.398439594164101
sg11
F6.398439618511517
sa(dp570
g8
F12.797616331669596
sg10
F16.3105869707106
sg11
F16.310586994295978
sa(dp571
g8
F14.090822967626902
sg10
F32.22657709819029
sg11
F32.226577220808146
sa(dp572
g8
F21.973892669594655
sg10
F47.087081168641454
sg11
F47.08708133839388
sa(dp573
g8
F28.084298132167348
sg10
F34.23256794999026
sg11
F34.23256799117462
sa(dp574
g8
F2.7556265567526625
sg10
F3.402475300168063
sg11
F3.4024753045042844
sa(dp575
g8
F2.5885843168353477
sg10
F3.1085919830142457
sg11
F3.1085919864940115
sa(dp576
g8
F2.6271650813998173
sg10
F3.348146825501309
sg11
F3.3481468303418236
sa(dp577
g8
F13.021755632358087
sg10
F29.785173437694368
sg11
F29.785173551033747
sa(dp578
g8
F24.544678304065148
sg10
F30.24825021256433
sg11
F30.24825025079478
sa(dp579
g8
F2.8180196076114594
sg10
F3.3982112406813463
sg11
F3.3982112445650072
sa(dp580
g8
F2.5403508158477237
sg10
F3.209244013890223
sg11
F3.2092440183793265
sa(dp581
g8
F2.7354187684978255
sg10
F3.123521397310894
sg11
F3.1235213998947198
sa(dp582
g8
F2.502879978386794
sg10
F3.536699358478093
sg11
F3.536699365439803
sa(dp583
g8
F2.9160259951909486
sg10
F2.5417394457790654
sg11
F2.5417394431955325
sa(dp584
g8
F2.0679658077090854
sg10
F4.730916634312232
sg11
F4.730916652316757
sa(dp585
g8
F18.725240239377104
sg10
F1.0911857699448822e-05
sg11
F1.0786682907057527e-05
sa(dp586
g8
F3.3214505132177536
sg10
F7.596548377211225
sg11
F7.59654840611564
sa(dp587
g8
F12.797618108137403
sg10
F25.060757644925744
sg11
F25.060757727784218
sa(dp588
g8
F4.477914047646973
sg10
F1.060952057801835
sg11
F1.060952034581623
sa(dp589
g8
F15.771433526122777
sg10
F13.780352748652893
sg11
F13.780352734905073
sa(dp590
g8
F2.219538488542177
sg10
F5.057871686871624
sg11
F5.057871706061677
sa(dp591
g8
F27.10885114276374
sg10
F4.135012738513232
sg11
F4.13501258244235
sa(dp592
g8
F7.064883360618295
sg10
F9.983045595417687
sg11
F9.983045615068507
sa(dp593
g8
F2.3526278638598788
sg10
F2.0506570403421254
sg11
F2.050657038257756
sa(dp594
g8
F2.0010300810419914
sg10
F4.5777840471963405
sg11
F4.577784064618077
sa(dp595
g8
F26.47970167862849
sg10
F1.5426676136021725e-05
sg11
F1.5249664192872567e-05
sa(dp596
g8
F4.31469607814873
sg10
F9.870793198603044
sg11
F9.87079323616847
sa(dp597
g8
F13.107082122764417
sg10
F0.0001013507086379936
sg11
F0.00010126309083134891
sa(dp598
g8
F37.520637558197414
sg10
F6.398419778228222
sg11
F6.39841956678884
sa(dp599
g8
F54.63408170521591
sg10
F115.91867546487217
sg11
F115.91867587910829
sa(dp600
g8
F27.80959993438413
sg10
F39.23103084005179
sg11
F39.23103091696076
sa(dp601
g8
F3.1577203139642043
sg10
F2.7644081357538
sg11
F2.764408133037399
sa(dp602
g8
F2.103152146883468
sg10
F4.7776794076701545
sg11
F4.777679425752517
sa(dp603
g8
F22.849578065816633
sg10
F6.286084362145369
sg11
F6.286084249568078
sa(dp604
g8
F15.197479617585621
sg10
F19.00038078157941
sg11
F19.00038080708914
sa(dp605
g8
F2.3576436827791003
sg10
F2.7550227592734906
sg11
F2.755022761926391
sa(dp606
g8
F52.706928443059624
sg10
F5.095704350951652
sg11
F5.095704027566062
sa(dp607
g8
F23.36175085568157
sg10
F53.44501924563579
sg11
F53.445019449032316
sa(dp608
g8
F3.7132397383703752
sg10
F2.163276734644041e-06
sg11
F2.1384544088699453e-06
sa(dp609
g8
F3.759070032305266
sg10
F8.599683070191054
sg11
F8.599683102919009
sa(dp610
g8
F12.797619597275645
sg10
F7.473985707549062e-06
sg11
F7.3884359707418426e-06
sa(dp611
g8
F2.803808540710612
sg10
F6.398439567114468
sg11
F6.398439591417989
sa(dp612
g8
F12.9404375095811
sg10
F1.2510806455985342
sg11
F1.2510805662019289
sa(dp613
g8
F4.396358273351067
sg10
F10.05761723241649
sg11
F10.05761727069293
sa(dp614
g8
F26.986528612215697
sg10
F4.2913359474376795
sg11
F4.291335793256346
sa(dp615
g8
F8.687810814478638
sg10
F19.875240137066918
sg11
F19.875240212706444
sa(dp616
g8
F41.82687423500958
sg10
F55.95334376855187
sg11
F55.9533438635532
sa(dp617
g8
F3.0590130993339217
sg10
F3.0590130993339217
sg11
F3.0590130993339217
sasb.